Certificate:
    Data:
        Version: 3 (0x2)
        Serial Number:
            4e:ea:fb:45:0c:8f:db:be:b8:4a:7e:37:3f:f1:18:9d:b3:42:4a:13
        Signature Algorithm: sha256WithRSAEncryption
        Issuer: C=JP, ST=Tokyo, O=ITC.CORP, OU=IT, CN=ConcertoInterCa200507
        Validity
            Not Before: May  7 04:55:35 2020 GMT
            Not After : May  2 04:55:35 2040 GMT
        Subject: C=JP, ST=Tokyo, O=ITC.CORP, OU=IT, CN=itcv1800005m.toshiba.local
        Subject Public Key Info:
            Public Key Algorithm: rsaEncryption
                RSA Public-Key: (2048 bit)
                Modulus:
                    00:d5:c3:4b:a9:11:6e:df:0e:41:51:ca:7c:1e:c6:
                    f6:2e:cf:0f:42:b8:e1:90:d2:db:62:74:27:91:f8:
                    09:3c:8e:54:10:9a:44:5f:d2:1b:cc:2a:39:39:6b:
                    77:49:52:7f:1b:33:9e:87:80:72:8b:f4:c3:35:cd:
                    63:74:7e:a6:c5:fd:82:37:2c:49:b3:b2:30:a0:9b:
                    6e:2d:f5:2d:c7:44:dc:a0:e7:4a:5f:c8:19:fb:bf:
                    8a:cd:17:67:48:6b:54:96:86:70:10:1f:85:de:cd:
                    25:e2:f9:23:6d:43:f0:62:69:69:87:c1:d3:ac:5b:
                    9b:bc:65:5f:ef:db:43:ee:ec:38:5c:79:25:ed:90:
                    bc:e8:cb:ab:2b:1e:05:28:f5:97:73:1b:9f:15:e1:
                    7f:c0:38:67:15:65:3f:7a:e8:ea:98:b9:42:5d:53:
                    d7:7a:df:74:6d:bc:6a:c5:4b:e6:8a:8b:a3:bb:7a:
                    2e:4f:1a:2f:a2:c0:ab:c3:d8:e7:99:59:93:85:59:
                    82:a6:91:03:47:d3:97:56:4a:38:b6:51:86:ec:67:
                    4c:85:d7:04:dd:9f:3d:ee:e2:81:f4:62:99:2c:e2:
                    34:73:da:3d:f8:61:46:36:1c:f3:8b:ca:d0:2a:2a:
                    04:27:d3:5f:c3:28:57:ce:01:67:68:1b:23:49:63:
                    97:53
                Exponent: 65537 (0x10001)
        X509v3 extensions:
            X509v3 Basic Constraints: 
                CA:FALSE
            X509v3 Key Usage: 
                Digital Signature, Key Encipherment
            X509v3 Extended Key Usage: 
                TLS Web Server Authentication
            X509v3 Subject Key Identifier: 
                F7:22:AB:54:B1:19:2D:36:78:58:C3:0A:97:5A:5C:12:DB:DA:A2:9B
            X509v3 Authority Key Identifier: 
                keyid:6E:8E:30:E6:3B:F4:45:42:38:37:1C:F0:16:DC:D4:54:0E:E4:DB:B8

    Signature Algorithm: sha256WithRSAEncryption
         9e:38:8b:2d:dd:14:9b:ef:12:a1:a1:63:0a:97:a2:21:0e:38:
         01:1f:6d:f7:be:4e:fb:81:c4:a7:d6:c0:ca:ff:26:f7:e7:67:
         57:66:d4:2c:64:58:28:ec:ad:5e:7b:be:ad:ae:bb:97:bd:db:
         3a:2d:2d:23:85:5e:9a:bc:55:2e:3d:01:3c:f1:fe:b5:21:51:
         43:e7:19:e4:7f:33:53:45:72:6d:04:70:aa:c5:dd:4c:84:ed:
         97:d5:be:7d:21:2b:29:1e:7c:c6:bb:62:7e:d6:b4:0e:dd:e6:
         23:7e:ff:60:4d:fd:1f:42:62:46:f9:5f:15:be:dd:92:c2:f6:
         e6:6b:62:e5:1d:b0:bc:2f:89:15:ab:5e:b9:12:e4:2d:b2:26:
         d2:3d:7b:34:88:1b:b7:6d:3d:59:b2:7c:09:0d:04:80:44:f6:
         82:1f:e5:26:1e:f0:1d:b3:60:98:03:89:74:06:f7:07:b7:a6:
         a0:35:64:a5:72:2f:f2:f4:03:b8:3a:dc:c9:10:cd:e0:0b:26:
         a9:7a:3e:1c:0d:21:24:ec:06:b1:d2:c6:87:4e:ca:04:50:c6:
         5f:c8:80:ed:8a:c8:25:d1:74:7a:d7:0d:9c:3e:e1:69:50:0e:
         91:60:dc:9f:a3:ce:96:c7:c5:10:ba:a5:c6:ef:d2:4a:e6:30:
         8b:97:ca:ea
-----BEGIN CERTIFICATE-----
MIIDvDCCAqSgAwIBAgIUTur7RQyP2764Sn43P/EYnbNCShMwDQYJKoZIhvcNAQEL
BQAwXTELMAkGA1UEBhMCSlAxDjAMBgNVBAgMBVRva3lvMREwDwYDVQQKDAhJVEMu
Q09SUDELMAkGA1UECwwCSVQxHjAcBgNVBAMMFUNvbmNlcnRvSW50ZXJDYTIwMDUw
NzAeFw0yMDA1MDcwNDU1MzVaFw00MDA1MDIwNDU1MzVaMGIxCzAJBgNVBAYTAkpQ
MQ4wDAYDVQQIDAVUb2t5bzERMA8GA1UECgwISVRDLkNPUlAxCzAJBgNVBAsMAklU
MSMwIQYDVQQDDBppdGN2MTgwMDAwNW0udG9zaGliYS5sb2NhbDCCASIwDQYJKoZI
hvcNAQEBBQADggEPADCCAQoCggEBANXDS6kRbt8OQVHKfB7G9i7PD0K44ZDS22J0
J5H4CTyOVBCaRF/SG8wqOTlrd0lSfxsznoeAcov0wzXNY3R+psX9gjcsSbOyMKCb
bi31LcdE3KDnSl/IGfu/is0XZ0hrVJaGcBAfhd7NJeL5I21D8GJpaYfB06xbm7xl
X+/bQ+7sOFx5Je2QvOjLqyseBSj1l3MbnxXhf8A4ZxVlP3ro6pi5Ql1T13rfdG28
asVL5oqLo7t6Lk8aL6LAq8PY55lZk4VZgqaRA0fTl1ZKOLZRhuxnTIXXBN2fPe7i
gfRimSziNHPaPfhhRjYc84vK0CoqBCfTX8MoV84BZ2gbI0ljl1MCAwEAAaNvMG0w
CQYDVR0TBAIwADALBgNVHQ8EBAMCBaAwEwYDVR0lBAwwCgYIKwYBBQUHAwEwHQYD
VR0OBBYEFPciq1SxGS02eFjDCpdaXBLb2qKbMB8GA1UdIwQYMBaAFG6OMOY79EVC
ODcc8Bbc1FQO5Nu4MA0GCSqGSIb3DQEBCwUAA4IBAQCeOIst3RSb7xKhoWMKl6Ih
DjgBH233vk77gcSn1sDK/yb352dXZtQsZFgo7K1ee76trruXvds6LS0jhV6avFUu
PQE88f61IVFD5xnkfzNTRXJtBHCqxd1MhO2X1b59ISspHnzGu2J+1rQO3eYjfv9g
Tf0fQmJG+V8Vvt2Swvbma2LlHbC8L4kVq165EuQtsibSPXs0iBu3bT1ZsnwJDQSA
RPaCH+UmHvAds2CYA4l0BvcHt6agNWSlci/y9AO4OtzJEM3gCyapej4cDSEk7Aax
0saHTsoEUMZfyIDtisgl0XR61w2cPuFpUA6RYNyfo86Wx8UQuqXG79JK5jCLl8rq
-----END CERTIFICATE-----
