-----BEGIN CERTIFICATE-----
MIIDuTCCAqGgAwIBAgIUSmf77pCt98NLGR4S7PoWIlBWkfYwDQYJKoZIhvcNAQEL
BQAwbDELMAkGA1UEBhMCSlAxDjAMBgNVBAgMBVRva3lvMQ4wDAYDVQQHDAVGdWNo
dTERMA8GA1UECgwISVRDLkNPUlAxCzAJBgNVBAsMAklUMR0wGwYDVQQDDBRDb25j
ZXJ0b1Jvb3RDYTIwMDUwNzAeFw0yMDA1MDcwNDE4MDFaFw00MDA1MDIwNDE4MDFa
MGwxCzAJBgNVBAYTAkpQMQ4wDAYDVQQIDAVUb2t5bzEOMAwGA1UEBwwFRnVjaHUx
ETAPBgNVBAoMCElUQy5DT1JQMQswCQYDVQQLDAJJVDEdMBsGA1UEAwwUQ29uY2Vy
dG9Sb290Q2EyMDA1MDcwggEiMA0GCSqGSIb3DQEBAQUAA4IBDwAwggEKAoIBAQDU
xj3hU77x9HeJ+V9zDKy3wlYULiYBlsHJHsJ1BL2MkBeCC/hZlVOg1q0LoiZ6Bs8Z
w3S5Asmr5LWPhqiS6E5ucztqPqXR7ITdjoIoXeyzb6fc3/mYPafuyCxfCFbHyzfU
EqVLjiSBHkB989W1OgOTU5UktOMG0RnZAfqNJ5hC4qCrUSRrTxO4koutL74lj50m
ldw8/05an8+MFgUqA//LNIDqayfC/yMN/2Fj/TH+SgBwjqLSj5GLEapu5Shwd3Fj
PSRxZnNBochc722Khyf6tbxr+xrPu2aE8ezE8IswJ737HX+OwgZ85z6PbOO4KXwc
DRekl/oWqpeCWOKlqi0rAgMBAAGjUzBRMB0GA1UdDgQWBBQvMRh6H225fq/v8LfV
bctJkEob7jAfBgNVHSMEGDAWgBQvMRh6H225fq/v8LfVbctJkEob7jAPBgNVHRMB
Af8EBTADAQH/MA0GCSqGSIb3DQEBCwUAA4IBAQAFqGL65YZWJkw/MC8eo2qcJO1O
G81cFqz/1fDmBmtu09jiGxRL+Yad2BZGyDuStLG2xch4oGhmAVZscdMgwk/Ixbbo
fmAM+Uj0Yzwf/2xrTLGK0OQt/aNAN3nTZxxWc7Lu1RHVRmvOumdJcAq7kpz8CIY3
avYJoF4nkm0q+pGkYHVIiHNS9MHtCeip07lEtWxDnK1RNjPglNa50bDrZ9uchW1q
guSigQzdTJG57H9RNaVcXErGzmPoNNIZhyLZYNQFrhtBH9bo75sj5rYxCUNv3KYz
I9aQbZMpq30WdBG+x5kUTrYuPSUy4UrWl60IIF+iZIlNbxCHGwUG+gHev9/Z
-----END CERTIFICATE-----
Certificate:
    Data:
        Version: 3 (0x2)
        Serial Number:
            06:87:c8:60:ec:24:64:c1:9f:ed:24:e6:0f:2f:28:0d:89:1b:69:ca
        Signature Algorithm: sha256WithRSAEncryption
        Issuer: C=JP, ST=Tokyo, L=Fuchu, O=ITC.CORP, OU=IT, CN=ConcertoRootCa200507
        Validity
            Not Before: May  7 04:18:24 2020 GMT
            Not After : May  2 04:18:24 2040 GMT
        Subject: C=JP, ST=Tokyo, O=ITC.CORP, OU=IT, CN=ConcertoInterCa200507
        Subject Public Key Info:
            Public Key Algorithm: rsaEncryption
                RSA Public-Key: (2048 bit)
                Modulus:
                    00:a8:c7:0f:9d:35:80:e2:eb:32:cb:f6:ac:65:67:
                    7d:1d:4f:1e:57:80:4b:9d:ea:4d:1f:e9:25:fd:1d:
                    44:fd:1a:61:8c:0f:f9:87:6c:a2:45:c0:67:c5:0a:
                    bb:fe:e4:e5:2b:ae:1a:56:11:fe:53:3d:f6:eb:fe:
                    90:23:d0:fa:00:5d:4b:c0:fc:cc:32:77:aa:d5:cf:
                    ff:38:6e:61:9e:91:b0:55:e1:97:74:f1:38:bb:7e:
                    f0:2b:43:b7:c9:b2:28:c4:e9:77:89:ee:8c:f1:de:
                    97:b5:43:c6:f2:7e:ff:b8:e2:29:4d:5d:91:e0:ea:
                    06:df:49:c1:d1:92:6b:3e:c4:98:eb:3e:be:96:6d:
                    a5:9a:12:8a:13:40:c7:44:f6:d1:f2:40:e4:03:06:
                    ab:72:8b:61:40:a0:4c:62:4f:64:86:58:16:22:ae:
                    f9:6a:8a:65:58:5e:13:0d:91:b5:b6:ea:6d:fd:95:
                    5a:ef:16:bb:46:e3:a6:cf:7b:9a:d6:6c:58:87:a4:
                    a1:4c:a0:23:c3:6e:5a:3b:97:fd:d1:b4:a7:00:98:
                    16:f4:fe:79:ca:86:8b:eb:f9:67:d6:49:73:c1:15:
                    7c:db:e5:52:ee:cb:36:f5:a0:21:2a:54:6b:8b:e0:
                    1c:41:28:9c:52:cb:10:6f:7b:6c:83:9c:d2:ba:09:
                    b6:61
                Exponent: 65537 (0x10001)
        X509v3 extensions:
            X509v3 Subject Key Identifier: 
                6E:8E:30:E6:3B:F4:45:42:38:37:1C:F0:16:DC:D4:54:0E:E4:DB:B8
            X509v3 Authority Key Identifier: 
                keyid:2F:31:18:7A:1F:6D:B9:7E:AF:EF:F0:B7:D5:6D:CB:49:90:4A:1B:EE

            X509v3 Basic Constraints: critical
                CA:TRUE
    Signature Algorithm: sha256WithRSAEncryption
         08:3f:4b:d0:58:f2:10:53:14:00:f8:4d:35:56:fe:bd:89:eb:
         c1:1c:97:0d:d4:b0:57:95:76:0d:c4:21:4e:86:22:1d:af:78:
         d8:75:4f:74:45:5f:26:22:ef:be:37:1e:cb:3d:e8:f0:6b:9b:
         b5:62:d6:50:83:57:02:db:8b:46:3b:a6:2c:eb:b4:25:ff:2a:
         53:4e:9d:a8:a3:26:0c:66:6d:af:8f:ed:d7:22:e2:97:d8:51:
         30:47:ae:ea:a5:51:da:7f:50:51:2a:2b:ed:12:0a:eb:bf:03:
         d2:f5:eb:82:a7:03:27:c2:ea:2b:8a:ad:f0:6b:cd:4f:2a:7a:
         60:08:84:8d:ac:ce:1c:9d:f4:16:76:74:06:52:dd:41:df:80:
         fa:14:06:ce:48:6a:6f:d0:7e:fa:a8:6a:2b:98:a4:27:99:f2:
         bb:16:99:d3:95:60:82:92:7e:6f:30:fe:d2:00:98:73:b2:5e:
         fd:8d:77:cd:ad:ee:58:4e:69:9a:29:2b:04:79:b7:f9:2b:d1:
         f3:a1:b1:58:ba:ea:93:07:e9:d0:92:f9:ff:d9:d2:5e:82:00:
         fa:d8:16:b9:ea:19:2c:20:31:89:8a:24:cd:d9:03:e6:8b:ed:
         7f:1c:3d:bf:7c:37:00:e4:e4:5e:21:2b:48:8d:c6:a1:5e:82:
         d9:79:2d:cd
-----BEGIN CERTIFICATE-----
MIIDqjCCApKgAwIBAgIUBofIYOwkZMGf7STmDy8oDYkbacowDQYJKoZIhvcNAQEL
BQAwbDELMAkGA1UEBhMCSlAxDjAMBgNVBAgMBVRva3lvMQ4wDAYDVQQHDAVGdWNo
dTERMA8GA1UECgwISVRDLkNPUlAxCzAJBgNVBAsMAklUMR0wGwYDVQQDDBRDb25j
ZXJ0b1Jvb3RDYTIwMDUwNzAeFw0yMDA1MDcwNDE4MjRaFw00MDA1MDIwNDE4MjRa
MF0xCzAJBgNVBAYTAkpQMQ4wDAYDVQQIDAVUb2t5bzERMA8GA1UECgwISVRDLkNP
UlAxCzAJBgNVBAsMAklUMR4wHAYDVQQDDBVDb25jZXJ0b0ludGVyQ2EyMDA1MDcw
ggEiMA0GCSqGSIb3DQEBAQUAA4IBDwAwggEKAoIBAQCoxw+dNYDi6zLL9qxlZ30d
Tx5XgEud6k0f6SX9HUT9GmGMD/mHbKJFwGfFCrv+5OUrrhpWEf5TPfbr/pAj0PoA
XUvA/Mwyd6rVz/84bmGekbBV4Zd08Ti7fvArQ7fJsijE6XeJ7ozx3pe1Q8byfv+4
4ilNXZHg6gbfScHRkms+xJjrPr6WbaWaEooTQMdE9tHyQOQDBqtyi2FAoExiT2SG
WBYirvlqimVYXhMNkbW26m39lVrvFrtG46bPe5rWbFiHpKFMoCPDblo7l/3RtKcA
mBb0/nnKhovr+WfWSXPBFXzb5VLuyzb1oCEqVGuL4BxBKJxSyxBve2yDnNK6CbZh
AgMBAAGjUzBRMB0GA1UdDgQWBBRujjDmO/RFQjg3HPAW3NRUDuTbuDAfBgNVHSME
GDAWgBQvMRh6H225fq/v8LfVbctJkEob7jAPBgNVHRMBAf8EBTADAQH/MA0GCSqG
SIb3DQEBCwUAA4IBAQAIP0vQWPIQUxQA+E01Vv69ievBHJcN1LBXlXYNxCFOhiId
r3jYdU90RV8mIu++Nx7LPejwa5u1YtZQg1cC24tGO6Ys67Ql/ypTTp2ooyYMZm2v
j+3XIuKX2FEwR67qpVHaf1BRKivtEgrrvwPS9euCpwMnwuoriq3wa81PKnpgCISN
rM4cnfQWdnQGUt1B34D6FAbOSGpv0H76qGormKQnmfK7FpnTlWCCkn5vMP7SAJhz
sl79jXfNre5YTmmaKSsEebf5K9HzobFYuuqTB+nQkvn/2dJeggD62Ba56hksIDGJ
iiTN2QPmi+1/HD2/fDcA5OReIStIjcahXoLZeS3N
-----END CERTIFICATE-----
Certificate:
    Data:
        Version: 3 (0x2)
        Serial Number:
            75:25:3b:50:56:ca:f8:97:29:79:22:73:b4:37:f2:68:24:d9:8e:4c
        Signature Algorithm: sha256WithRSAEncryption
        Issuer: C=JP, ST=Tokyo, O=ITC.CORP, OU=IT, CN=ConcertoInterCa200507
        Validity
            Not Before: May 11 01:43:01 2020 GMT
            Not After : May  6 01:43:01 2040 GMT
        Subject: C=JP, ST=Tokyo, O=ITC.CORP, OU=IT, CN=localhost
        Subject Public Key Info:
            Public Key Algorithm: rsaEncryption
                RSA Public-Key: (2048 bit)
                Modulus:
                    00:e5:9b:21:d4:68:01:60:1d:e9:0e:28:86:93:71:
                    fe:24:b8:6a:a2:4d:86:d9:7e:b8:49:cd:6f:4e:a3:
                    8d:c5:ac:6a:89:66:55:00:57:98:ce:e6:c5:73:c4:
                    e6:93:df:1b:e8:6a:ff:fa:9e:b0:54:97:df:03:ff:
                    34:f1:6f:32:68:36:b5:04:d6:06:07:09:da:e8:de:
                    c3:c2:3e:40:6f:ab:0d:37:9f:cd:30:99:3c:c0:8a:
                    bf:97:ca:e4:0a:10:98:20:61:ab:75:49:3e:f1:d1:
                    80:3a:25:3e:5f:e8:07:4a:c3:05:63:5f:97:55:83:
                    9a:3b:48:5f:d4:34:ae:2b:55:40:b8:82:25:0b:c4:
                    2a:4e:6c:c1:60:a3:ff:01:8e:df:84:f1:04:62:96:
                    a0:1d:0f:87:21:01:a4:61:61:0a:c0:57:bd:ef:3e:
                    a8:e6:0d:3d:c8:c5:f8:54:37:fb:0d:b9:c8:ef:4c:
                    73:c2:7c:cd:fe:6c:73:a7:2c:6a:93:c5:ab:6d:d1:
                    99:57:17:e7:2a:bc:56:e1:20:6b:34:c7:13:81:36:
                    5c:61:49:49:d2:9e:ce:43:94:07:a5:be:44:66:31:
                    be:92:a0:96:87:34:36:e3:6c:fc:97:b3:66:3b:7c:
                    45:f3:d1:66:2a:11:f3:6c:5c:c7:f8:c3:a4:8f:a2:
                    2c:ad
                Exponent: 65537 (0x10001)
        X509v3 extensions:
            X509v3 Basic Constraints: 
                CA:FALSE
            X509v3 Key Usage: 
                Digital Signature, Key Encipherment
            X509v3 Extended Key Usage: 
                TLS Web Server Authentication
            X509v3 Subject Key Identifier: 
                56:F0:54:6D:D9:7B:1A:9F:C4:BF:46:77:F3:63:23:2A:1F:13:C5:46
            X509v3 Authority Key Identifier: 
                keyid:6E:8E:30:E6:3B:F4:45:42:38:37:1C:F0:16:DC:D4:54:0E:E4:DB:B8

    Signature Algorithm: sha256WithRSAEncryption
         6d:e0:1c:70:fa:df:5e:2d:de:06:90:e4:d5:9c:af:79:61:b5:
         78:95:d1:83:c8:cb:9b:38:85:a8:42:fc:d1:c7:1c:94:ee:83:
         8e:16:20:a4:83:ba:b3:5f:00:41:4c:e9:ec:c5:03:23:77:d1:
         f8:86:6d:9e:21:b9:ba:8e:e5:44:91:31:07:30:d9:40:40:96:
         f3:b0:28:3e:a2:ef:6f:73:fb:b4:cd:8a:03:63:ed:5e:e8:e8:
         3b:7c:d5:f3:4b:73:50:17:4c:e6:ca:e8:2d:33:88:7e:e1:79:
         c8:db:3c:17:10:60:85:66:93:ec:1c:0b:4f:8b:db:47:61:10:
         95:a9:9f:8d:ef:3b:66:95:f3:01:33:77:45:c5:ec:6b:96:89:
         33:05:0d:b3:66:68:dc:8e:ac:fb:f6:d3:8b:8e:e6:7a:c0:8e:
         45:fe:b4:e8:fa:1b:0a:20:de:9b:a1:02:ba:f1:28:7f:e4:b8:
         e6:89:9f:f8:5a:63:24:68:b4:ca:17:c4:08:f3:8a:48:76:fb:
         4c:0f:dc:e2:d8:c7:d5:fe:8f:6e:e9:9b:b2:4c:1c:34:c6:27:
         d7:6c:ef:c0:8d:ea:9a:ba:4a:79:29:3f:60:6b:30:27:5e:bd:
         d5:1e:70:64:64:96:65:e2:64:b0:62:c2:84:68:19:a4:ba:9f:
         dc:5d:be:ba
-----BEGIN CERTIFICATE-----
MIIDqzCCApOgAwIBAgIUdSU7UFbK+JcpeSJztDfyaCTZjkwwDQYJKoZIhvcNAQEL
BQAwXTELMAkGA1UEBhMCSlAxDjAMBgNVBAgMBVRva3lvMREwDwYDVQQKDAhJVEMu
Q09SUDELMAkGA1UECwwCSVQxHjAcBgNVBAMMFUNvbmNlcnRvSW50ZXJDYTIwMDUw
NzAeFw0yMDA1MTEwMTQzMDFaFw00MDA1MDYwMTQzMDFaMFExCzAJBgNVBAYTAkpQ
MQ4wDAYDVQQIDAVUb2t5bzERMA8GA1UECgwISVRDLkNPUlAxCzAJBgNVBAsMAklU
MRIwEAYDVQQDDAlsb2NhbGhvc3QwggEiMA0GCSqGSIb3DQEBAQUAA4IBDwAwggEK
AoIBAQDlmyHUaAFgHekOKIaTcf4kuGqiTYbZfrhJzW9Oo43FrGqJZlUAV5jO5sVz
xOaT3xvoav/6nrBUl98D/zTxbzJoNrUE1gYHCdro3sPCPkBvqw03n80wmTzAir+X
yuQKEJggYat1ST7x0YA6JT5f6AdKwwVjX5dVg5o7SF/UNK4rVUC4giULxCpObMFg
o/8Bjt+E8QRilqAdD4chAaRhYQrAV73vPqjmDT3IxfhUN/sNucjvTHPCfM3+bHOn
LGqTxatt0ZlXF+cqvFbhIGs0xxOBNlxhSUnSns5DlAelvkRmMb6SoJaHNDbjbPyX
s2Y7fEXz0WYqEfNsXMf4w6SPoiytAgMBAAGjbzBtMAkGA1UdEwQCMAAwCwYDVR0P
BAQDAgWgMBMGA1UdJQQMMAoGCCsGAQUFBwMBMB0GA1UdDgQWBBRW8FRt2Xsan8S/
RnfzYyMqHxPFRjAfBgNVHSMEGDAWgBRujjDmO/RFQjg3HPAW3NRUDuTbuDANBgkq
hkiG9w0BAQsFAAOCAQEAbeAccPrfXi3eBpDk1ZyveWG1eJXRg8jLmziFqEL80ccc
lO6DjhYgpIO6s18AQUzp7MUDI3fR+IZtniG5uo7lRJExBzDZQECW87AoPqLvb3P7
tM2KA2PtXujoO3zV80tzUBdM5sroLTOIfuF5yNs8FxBghWaT7BwLT4vbR2EQlamf
je87ZpXzATN3RcXsa5aJMwUNs2Zo3I6s+/bTi47mesCORf606PobCiDem6ECuvEo
f+S45omf+FpjJGi0yhfECPOKSHb7TA/c4tjH1f6PbumbskwcNMYn12zvwI3qmrpK
eSk/YGswJ1691R5wZGSWZeJksGLChGgZpLqf3F2+ug==
-----END CERTIFICATE-----
