-----BEGIN CERTIFICATE-----
MIIDuTCCAqGgAwIBAgIUZsP/jfrjKLOK9ZjwX+srXRJz1zEwDQYJKoZIhvcNAQEL
BQAwbDELMAkGA1UEBhMCSlAxDjAMBgNVBAgMBVRva3lvMQ4wDAYDVQQHDAVGdWNo
dTERMA8GA1UECgwISVRDLkNPUlAxCzAJBgNVBAsMAklUMR0wGwYDVQQDDBRDb25j
ZXJ0b1Jvb3RDYTIwMDUwODAeFw0yMDA1MDcyMjE2MDFaFw00MDA1MDIyMjE2MDFa
MGwxCzAJBgNVBAYTAkpQMQ4wDAYDVQQIDAVUb2t5bzEOMAwGA1UEBwwFRnVjaHUx
ETAPBgNVBAoMCElUQy5DT1JQMQswCQYDVQQLDAJJVDEdMBsGA1UEAwwUQ29uY2Vy
dG9Sb290Q2EyMDA1MDgwggEiMA0GCSqGSIb3DQEBAQUAA4IBDwAwggEKAoIBAQC1
27zUoxV3huVBL99O+QpXLWZ/4pjHsPJjz1G2w7D8bxGXCpzrwBrWOXP9EKiJug8p
iFryArG7SJxB0/i0N7pE00meoKZa9FHTC9hxHYrKsyBRRwbBYGIv5t4uxq4KEVqY
yn9aOPOIzgpV9g4vcaubFuYL5iLY9aM/+i6XL2xZuN9Hu2R5xKpvGC02dI1jTKoi
/aUsqmmaHzfsRVGBhSvDMu8w1rmGUvLtPB3xVuYeS5Gy2ZaMkslhYdBUmXFAfakb
lwOrwQpKNNE6+f7ZEuWZnj3/hdiP2aFMsssV3jcY+p56nnimWfad9oS0tl50gTOH
VzCxe8NObNvYXLAoIGXTAgMBAAGjUzBRMB0GA1UdDgQWBBTjOQrFpG/4ZzkZ9qFd
wMcFbFC03TAfBgNVHSMEGDAWgBTjOQrFpG/4ZzkZ9qFdwMcFbFC03TAPBgNVHRMB
Af8EBTADAQH/MA0GCSqGSIb3DQEBCwUAA4IBAQCTMEDhgZL286F+r6+tqn7uXAdo
L8P5rW444JY22RpJGl8TtxrQ9wWgty5/XrWamNa1bnQIEuQkFayC+VRwqp784h4b
5QE1E3l15tdHDosxnBH/93vBLgAaUzav3z4mseQQMmpxqBs35pHWFY3+EtSXIjUl
RDd0BGcVPNEsDJmg4lZGiyFFKq/hV3bc2JesxgF+7zEsqZYJL/qFbxoD+Qgap3IY
ApPsOfG30bpm/tW3Q+PtrmXE2GrbWMxOpt0EF8xOpZm12a2a6BVwEtJPtIHqGS+y
08h8fQi2YvCh0OjIhluJy80iWpAKujocIDTLn7KdY5CouKxEir5Nn94ldHcN
-----END CERTIFICATE-----
Certificate:
    Data:
        Version: 3 (0x2)
        Serial Number:
            44:fb:38:94:53:ba:23:bd:f6:a3:fa:88:7f:67:81:78:96:4a:3e:ef
        Signature Algorithm: sha256WithRSAEncryption
        Issuer: C=JP, ST=Tokyo, L=Fuchu, O=ITC.CORP, OU=IT, CN=ConcertoRootCa200508
        Validity
            Not Before: May  7 22:16:24 2020 GMT
            Not After : May  2 22:16:24 2040 GMT
        Subject: C=JP, ST=Tokyo, O=ITC.CORP, OU=IT, CN=ConcertoInterCa200508
        Subject Public Key Info:
            Public Key Algorithm: rsaEncryption
                RSA Public-Key: (2048 bit)
                Modulus:
                    00:9d:56:03:4c:da:ff:37:66:53:fe:15:9c:32:2f:
                    91:bf:29:d6:72:55:0a:a9:18:85:62:b5:88:92:c9:
                    09:bd:1c:30:1e:ed:8d:a7:a1:bc:ad:99:81:d6:16:
                    97:cf:36:ae:f6:4b:e6:da:65:99:3f:85:82:a8:bb:
                    de:5f:0d:54:08:2f:67:d6:27:f8:49:2e:ab:06:52:
                    80:d6:88:36:44:9c:3e:f3:d7:ee:54:d7:9a:49:1d:
                    dc:66:7e:c2:4f:36:24:52:5f:d6:60:4b:ed:b0:13:
                    a3:73:b9:11:94:69:aa:3c:3a:ba:18:dc:4a:08:08:
                    a6:a1:15:bb:24:d1:f6:c7:4c:19:6d:19:3e:c9:94:
                    7b:ee:ff:20:9f:b2:69:fa:d9:a2:4b:d2:ec:59:49:
                    fd:14:73:99:78:5f:5b:fd:f0:84:d2:c5:96:9c:5a:
                    b8:93:d9:79:d5:26:9b:67:2a:96:0e:13:7e:8c:2a:
                    77:16:30:97:4b:ca:e8:89:f1:75:12:c8:40:a9:13:
                    45:bb:44:09:48:60:0e:2c:be:93:56:db:25:ad:92:
                    07:d1:1b:9a:72:d2:ee:4d:32:a1:97:6a:e6:59:5d:
                    4f:e6:8b:47:9e:dc:23:6b:50:3e:21:20:42:c7:1d:
                    06:92:d2:a4:62:fe:65:09:cf:13:98:fe:c7:9d:18:
                    89:11
                Exponent: 65537 (0x10001)
        X509v3 extensions:
            X509v3 Subject Key Identifier: 
                12:CD:9A:85:E8:FB:D9:CB:A4:4E:00:FD:8F:34:72:C6:98:C9:3E:D7
            X509v3 Authority Key Identifier: 
                keyid:E3:39:0A:C5:A4:6F:F8:67:39:19:F6:A1:5D:C0:C7:05:6C:50:B4:DD

            X509v3 Basic Constraints: critical
                CA:TRUE
    Signature Algorithm: sha256WithRSAEncryption
         b2:b9:a0:87:29:a5:3c:cb:e6:a3:a4:55:f5:d8:e3:47:f9:dc:
         fc:8e:02:ff:8d:d7:da:1d:62:1c:e0:83:24:5c:39:32:33:5e:
         23:09:61:5b:8c:e6:75:cc:ce:cf:2b:8f:25:87:ec:ce:34:09:
         9e:84:46:a4:b1:18:6d:8f:62:e7:60:74:76:bb:05:73:1f:95:
         99:a0:8a:c8:98:eb:8b:26:71:d9:14:4f:06:7f:c0:56:ba:e4:
         f1:80:99:df:e8:66:c5:a0:4d:8f:34:ed:ea:bd:f7:ae:25:ff:
         eb:a9:06:a4:f9:6a:1b:89:01:7d:72:5e:b3:05:d9:6b:4a:46:
         2e:5e:1b:07:67:9a:e2:0f:47:7d:ef:6b:3b:b1:97:4a:08:d2:
         08:04:52:7b:f9:55:34:2c:a1:49:ba:e4:3d:83:62:38:22:30:
         26:6d:c0:4f:2f:74:6f:ed:f6:7e:bb:d1:d0:9c:bc:77:5c:11:
         a4:65:38:8c:e5:a7:08:49:36:f4:ef:79:c9:62:6d:61:d8:13:
         8a:7b:15:6a:1c:23:2a:e4:0e:21:fd:88:d3:cf:85:02:db:5b:
         a4:eb:fd:93:7a:39:6b:6f:0c:e0:28:27:19:e1:94:4a:78:0a:
         db:ce:63:08:94:55:e7:28:2b:b7:1c:d7:05:74:57:2f:80:a3:
         11:c7:c0:04
-----BEGIN CERTIFICATE-----
MIIDqjCCApKgAwIBAgIURPs4lFO6I732o/qIf2eBeJZKPu8wDQYJKoZIhvcNAQEL
BQAwbDELMAkGA1UEBhMCSlAxDjAMBgNVBAgMBVRva3lvMQ4wDAYDVQQHDAVGdWNo
dTERMA8GA1UECgwISVRDLkNPUlAxCzAJBgNVBAsMAklUMR0wGwYDVQQDDBRDb25j
ZXJ0b1Jvb3RDYTIwMDUwODAeFw0yMDA1MDcyMjE2MjRaFw00MDA1MDIyMjE2MjRa
MF0xCzAJBgNVBAYTAkpQMQ4wDAYDVQQIDAVUb2t5bzERMA8GA1UECgwISVRDLkNP
UlAxCzAJBgNVBAsMAklUMR4wHAYDVQQDDBVDb25jZXJ0b0ludGVyQ2EyMDA1MDgw
ggEiMA0GCSqGSIb3DQEBAQUAA4IBDwAwggEKAoIBAQCdVgNM2v83ZlP+FZwyL5G/
KdZyVQqpGIVitYiSyQm9HDAe7Y2nobytmYHWFpfPNq72S+baZZk/hYKou95fDVQI
L2fWJ/hJLqsGUoDWiDZEnD7z1+5U15pJHdxmfsJPNiRSX9ZgS+2wE6NzuRGUaao8
OroY3EoICKahFbsk0fbHTBltGT7JlHvu/yCfsmn62aJL0uxZSf0Uc5l4X1v98ITS
xZacWriT2XnVJptnKpYOE36MKncWMJdLyuiJ8XUSyECpE0W7RAlIYA4svpNW2yWt
kgfRG5py0u5NMqGXauZZXU/mi0ee3CNrUD4hIELHHQaS0qRi/mUJzxOY/sedGIkR
AgMBAAGjUzBRMB0GA1UdDgQWBBQSzZqF6PvZy6ROAP2PNHLGmMk+1zAfBgNVHSME
GDAWgBTjOQrFpG/4ZzkZ9qFdwMcFbFC03TAPBgNVHRMBAf8EBTADAQH/MA0GCSqG
SIb3DQEBCwUAA4IBAQCyuaCHKaU8y+ajpFX12ONH+dz8jgL/jdfaHWIc4IMkXDky
M14jCWFbjOZ1zM7PK48lh+zONAmehEaksRhtj2LnYHR2uwVzH5WZoIrImOuLJnHZ
FE8Gf8BWuuTxgJnf6GbFoE2PNO3qvfeuJf/rqQak+WobiQF9cl6zBdlrSkYuXhsH
Z5riD0d972s7sZdKCNIIBFJ7+VU0LKFJuuQ9g2I4IjAmbcBPL3Rv7fZ+u9HQnLx3
XBGkZTiM5acISTb073nJYm1h2BOKexVqHCMq5A4h/YjTz4UC21uk6/2Tejlrbwzg
KCcZ4ZRKeArbzmMIlFXnKCu3HNcFdFcvgKMRx8AE
-----END CERTIFICATE-----
Certificate:
    Data:
        Version: 3 (0x2)
        Serial Number:
            4d:5f:6e:2f:05:96:37:94:f2:f4:5a:15:95:7b:42:d7:44:dd:f8:79
        Signature Algorithm: sha256WithRSAEncryption
        Issuer: C=JP, ST=Tokyo, O=ITC.CORP, OU=IT, CN=ConcertoInterCa200508
        Validity
            Not Before: May  7 22:16:59 2020 GMT
            Not After : May  2 22:16:59 2040 GMT
        Subject: C=JP, ST=Tokyo, O=ITC.CORP, OU=IT, CN=itcp1913571.toshiba.local
        Subject Public Key Info:
            Public Key Algorithm: rsaEncryption
                RSA Public-Key: (2048 bit)
                Modulus:
                    00:dd:d8:f9:b9:88:19:c9:1d:93:67:af:66:7b:ae:
                    a7:f4:b1:ba:21:4b:35:6d:87:5c:98:9b:94:93:cd:
                    4d:85:12:68:67:47:ee:f5:c9:7a:cc:a5:d5:d0:9d:
                    c1:27:71:aa:0f:16:e0:45:e5:03:ad:9a:44:0c:94:
                    30:dd:bc:8a:1e:db:4d:e0:28:b3:f3:92:b9:1c:45:
                    00:aa:82:05:4c:1d:75:82:bc:70:77:a4:5c:04:15:
                    da:47:dc:39:ba:c6:64:e2:d3:22:91:bb:7c:d8:2a:
                    b2:2b:d8:54:76:42:96:ce:1e:ea:e9:3e:4c:96:e8:
                    ea:cd:85:6b:61:ee:db:2e:9a:6b:41:d7:be:5d:87:
                    a4:7e:bb:ba:1c:5d:f4:f6:90:65:d6:61:da:8f:2f:
                    e5:58:b9:e9:74:6a:a2:ed:ec:94:47:e0:78:95:13:
                    2d:91:79:4e:56:15:b4:3a:42:6f:d2:30:18:02:bb:
                    37:9b:74:04:ec:63:37:c2:2a:bc:61:c0:8f:7d:fb:
                    01:13:73:90:e1:7c:62:5a:7b:b3:82:15:57:b3:2e:
                    70:3d:00:93:79:75:ca:76:db:2a:0e:9d:66:22:6b:
                    a3:1f:57:5f:19:b7:54:1c:fa:01:19:9e:d7:90:96:
                    8d:a3:60:a7:59:44:44:6c:c8:a0:7c:8d:97:fb:a7:
                    7d:09
                Exponent: 65537 (0x10001)
        X509v3 extensions:
            X509v3 Basic Constraints: 
                CA:FALSE
            X509v3 Key Usage: 
                Digital Signature, Key Encipherment
            X509v3 Extended Key Usage: 
                TLS Web Server Authentication
            X509v3 Subject Key Identifier: 
                8A:9A:64:11:79:B0:0F:1D:B5:CA:E3:7A:40:57:68:CC:FD:CB:50:83
            X509v3 Authority Key Identifier: 
                keyid:12:CD:9A:85:E8:FB:D9:CB:A4:4E:00:FD:8F:34:72:C6:98:C9:3E:D7

    Signature Algorithm: sha256WithRSAEncryption
         28:03:af:85:cb:22:50:90:52:fc:42:5b:4b:dd:1d:64:59:2f:
         f5:5e:23:65:79:4e:bb:5c:94:2c:00:63:57:b3:91:73:7b:3a:
         7a:df:34:7c:29:86:48:59:bd:f8:fc:e1:17:9a:c6:91:15:c9:
         8a:d2:32:e6:17:24:cb:d6:e0:1b:03:0d:da:09:8b:00:68:1e:
         c9:20:96:dd:e7:0d:8d:7f:81:5d:af:48:3e:9b:31:f5:1d:31:
         19:e4:2d:14:8f:6c:f0:78:35:ec:c3:ed:3c:f2:e4:fb:c4:90:
         1f:6e:65:42:d8:e5:28:82:e4:02:45:f2:cd:02:a6:b1:40:ee:
         bb:c1:7c:d1:19:26:d0:ae:ef:7e:6a:71:2a:05:f0:d3:83:d1:
         41:e8:bc:17:61:61:2d:a2:3a:08:0a:8a:ae:c1:12:46:16:4a:
         0d:12:b7:06:bb:2f:96:b1:eb:3f:f8:95:99:22:ce:fc:07:03:
         60:f9:cf:6b:c0:d2:cd:ba:59:47:81:67:02:c5:bc:37:c8:66:
         85:f4:2b:0d:c6:09:88:e2:44:e8:ec:3e:a5:27:74:ed:c9:bc:
         86:7c:34:00:1e:ff:46:9c:5c:d3:4a:c3:e7:12:b6:02:eb:c3:
         95:bb:bd:d3:40:d6:60:e9:e7:4c:40:80:89:58:19:10:a6:32:
         a6:b8:2e:e4
-----BEGIN CERTIFICATE-----
MIIDuzCCAqOgAwIBAgIUTV9uLwWWN5Ty9FoVlXtC10Td+HkwDQYJKoZIhvcNAQEL
BQAwXTELMAkGA1UEBhMCSlAxDjAMBgNVBAgMBVRva3lvMREwDwYDVQQKDAhJVEMu
Q09SUDELMAkGA1UECwwCSVQxHjAcBgNVBAMMFUNvbmNlcnRvSW50ZXJDYTIwMDUw
ODAeFw0yMDA1MDcyMjE2NTlaFw00MDA1MDIyMjE2NTlaMGExCzAJBgNVBAYTAkpQ
MQ4wDAYDVQQIDAVUb2t5bzERMA8GA1UECgwISVRDLkNPUlAxCzAJBgNVBAsMAklU
MSIwIAYDVQQDDBlpdGNwMTkxMzU3MS50b3NoaWJhLmxvY2FsMIIBIjANBgkqhkiG
9w0BAQEFAAOCAQ8AMIIBCgKCAQEA3dj5uYgZyR2TZ69me66n9LG6IUs1bYdcmJuU
k81NhRJoZ0fu9cl6zKXV0J3BJ3GqDxbgReUDrZpEDJQw3byKHttN4Ciz85K5HEUA
qoIFTB11grxwd6RcBBXaR9w5usZk4tMikbt82CqyK9hUdkKWzh7q6T5MlujqzYVr
Ye7bLpprQde+XYekfru6HF309pBl1mHajy/lWLnpdGqi7eyUR+B4lRMtkXlOVhW0
OkJv0jAYArs3m3QE7GM3wiq8YcCPffsBE3OQ4XxiWnuzghVXsy5wPQCTeXXKdtsq
Dp1mImujH1dfGbdUHPoBGZ7XkJaNo2CnWUREbMigfI2X+6d9CQIDAQABo28wbTAJ
BgNVHRMEAjAAMAsGA1UdDwQEAwIFoDATBgNVHSUEDDAKBggrBgEFBQcDATAdBgNV
HQ4EFgQUippkEXmwDx21yuN6QFdozP3LUIMwHwYDVR0jBBgwFoAUEs2ahej72cuk
TgD9jzRyxpjJPtcwDQYJKoZIhvcNAQELBQADggEBACgDr4XLIlCQUvxCW0vdHWRZ
L/VeI2V5TrtclCwAY1ezkXN7OnrfNHwphkhZvfj84ReaxpEVyYrSMuYXJMvW4BsD
DdoJiwBoHskglt3nDY1/gV2vSD6bMfUdMRnkLRSPbPB4NezD7Tzy5PvEkB9uZULY
5SiC5AJF8s0CprFA7rvBfNEZJtCu735qcSoF8NOD0UHovBdhYS2iOggKiq7BEkYW
Sg0Stwa7L5ax6z/4lZkizvwHA2D5z2vA0s26WUeBZwLFvDfIZoX0Kw3GCYjiROjs
PqUndO3JvIZ8NAAe/0acXNNKw+cStgLrw5W7vdNA1mDp50xAgIlYGRCmMqa4LuQ=
-----END CERTIFICATE-----
