Certificate:
    Data:
        Version: 3 (0x2)
        Serial Number:
            06:87:c8:60:ec:24:64:c1:9f:ed:24:e6:0f:2f:28:0d:89:1b:69:ca
        Signature Algorithm: sha256WithRSAEncryption
        Issuer: C=JP, ST=Tokyo, L=Fuchu, O=ITC.CORP, OU=IT, CN=ConcertoRootCa200507
        Validity
            Not Before: May  7 04:18:24 2020 GMT
            Not After : May  2 04:18:24 2040 GMT
        Subject: C=JP, ST=Tokyo, O=ITC.CORP, OU=IT, CN=ConcertoInterCa200507
        Subject Public Key Info:
            Public Key Algorithm: rsaEncryption
                RSA Public-Key: (2048 bit)
                Modulus:
                    00:a8:c7:0f:9d:35:80:e2:eb:32:cb:f6:ac:65:67:
                    7d:1d:4f:1e:57:80:4b:9d:ea:4d:1f:e9:25:fd:1d:
                    44:fd:1a:61:8c:0f:f9:87:6c:a2:45:c0:67:c5:0a:
                    bb:fe:e4:e5:2b:ae:1a:56:11:fe:53:3d:f6:eb:fe:
                    90:23:d0:fa:00:5d:4b:c0:fc:cc:32:77:aa:d5:cf:
                    ff:38:6e:61:9e:91:b0:55:e1:97:74:f1:38:bb:7e:
                    f0:2b:43:b7:c9:b2:28:c4:e9:77:89:ee:8c:f1:de:
                    97:b5:43:c6:f2:7e:ff:b8:e2:29:4d:5d:91:e0:ea:
                    06:df:49:c1:d1:92:6b:3e:c4:98:eb:3e:be:96:6d:
                    a5:9a:12:8a:13:40:c7:44:f6:d1:f2:40:e4:03:06:
                    ab:72:8b:61:40:a0:4c:62:4f:64:86:58:16:22:ae:
                    f9:6a:8a:65:58:5e:13:0d:91:b5:b6:ea:6d:fd:95:
                    5a:ef:16:bb:46:e3:a6:cf:7b:9a:d6:6c:58:87:a4:
                    a1:4c:a0:23:c3:6e:5a:3b:97:fd:d1:b4:a7:00:98:
                    16:f4:fe:79:ca:86:8b:eb:f9:67:d6:49:73:c1:15:
                    7c:db:e5:52:ee:cb:36:f5:a0:21:2a:54:6b:8b:e0:
                    1c:41:28:9c:52:cb:10:6f:7b:6c:83:9c:d2:ba:09:
                    b6:61
                Exponent: 65537 (0x10001)
        X509v3 extensions:
            X509v3 Subject Key Identifier: 
                6E:8E:30:E6:3B:F4:45:42:38:37:1C:F0:16:DC:D4:54:0E:E4:DB:B8
            X509v3 Authority Key Identifier: 
                keyid:2F:31:18:7A:1F:6D:B9:7E:AF:EF:F0:B7:D5:6D:CB:49:90:4A:1B:EE

            X509v3 Basic Constraints: critical
                CA:TRUE
    Signature Algorithm: sha256WithRSAEncryption
         08:3f:4b:d0:58:f2:10:53:14:00:f8:4d:35:56:fe:bd:89:eb:
         c1:1c:97:0d:d4:b0:57:95:76:0d:c4:21:4e:86:22:1d:af:78:
         d8:75:4f:74:45:5f:26:22:ef:be:37:1e:cb:3d:e8:f0:6b:9b:
         b5:62:d6:50:83:57:02:db:8b:46:3b:a6:2c:eb:b4:25:ff:2a:
         53:4e:9d:a8:a3:26:0c:66:6d:af:8f:ed:d7:22:e2:97:d8:51:
         30:47:ae:ea:a5:51:da:7f:50:51:2a:2b:ed:12:0a:eb:bf:03:
         d2:f5:eb:82:a7:03:27:c2:ea:2b:8a:ad:f0:6b:cd:4f:2a:7a:
         60:08:84:8d:ac:ce:1c:9d:f4:16:76:74:06:52:dd:41:df:80:
         fa:14:06:ce:48:6a:6f:d0:7e:fa:a8:6a:2b:98:a4:27:99:f2:
         bb:16:99:d3:95:60:82:92:7e:6f:30:fe:d2:00:98:73:b2:5e:
         fd:8d:77:cd:ad:ee:58:4e:69:9a:29:2b:04:79:b7:f9:2b:d1:
         f3:a1:b1:58:ba:ea:93:07:e9:d0:92:f9:ff:d9:d2:5e:82:00:
         fa:d8:16:b9:ea:19:2c:20:31:89:8a:24:cd:d9:03:e6:8b:ed:
         7f:1c:3d:bf:7c:37:00:e4:e4:5e:21:2b:48:8d:c6:a1:5e:82:
         d9:79:2d:cd
-----BEGIN CERTIFICATE-----
MIIDqjCCApKgAwIBAgIUBofIYOwkZMGf7STmDy8oDYkbacowDQYJKoZIhvcNAQEL
BQAwbDELMAkGA1UEBhMCSlAxDjAMBgNVBAgMBVRva3lvMQ4wDAYDVQQHDAVGdWNo
dTERMA8GA1UECgwISVRDLkNPUlAxCzAJBgNVBAsMAklUMR0wGwYDVQQDDBRDb25j
ZXJ0b1Jvb3RDYTIwMDUwNzAeFw0yMDA1MDcwNDE4MjRaFw00MDA1MDIwNDE4MjRa
MF0xCzAJBgNVBAYTAkpQMQ4wDAYDVQQIDAVUb2t5bzERMA8GA1UECgwISVRDLkNP
UlAxCzAJBgNVBAsMAklUMR4wHAYDVQQDDBVDb25jZXJ0b0ludGVyQ2EyMDA1MDcw
ggEiMA0GCSqGSIb3DQEBAQUAA4IBDwAwggEKAoIBAQCoxw+dNYDi6zLL9qxlZ30d
Tx5XgEud6k0f6SX9HUT9GmGMD/mHbKJFwGfFCrv+5OUrrhpWEf5TPfbr/pAj0PoA
XUvA/Mwyd6rVz/84bmGekbBV4Zd08Ti7fvArQ7fJsijE6XeJ7ozx3pe1Q8byfv+4
4ilNXZHg6gbfScHRkms+xJjrPr6WbaWaEooTQMdE9tHyQOQDBqtyi2FAoExiT2SG
WBYirvlqimVYXhMNkbW26m39lVrvFrtG46bPe5rWbFiHpKFMoCPDblo7l/3RtKcA
mBb0/nnKhovr+WfWSXPBFXzb5VLuyzb1oCEqVGuL4BxBKJxSyxBve2yDnNK6CbZh
AgMBAAGjUzBRMB0GA1UdDgQWBBRujjDmO/RFQjg3HPAW3NRUDuTbuDAfBgNVHSME
GDAWgBQvMRh6H225fq/v8LfVbctJkEob7jAPBgNVHRMBAf8EBTADAQH/MA0GCSqG
SIb3DQEBCwUAA4IBAQAIP0vQWPIQUxQA+E01Vv69ievBHJcN1LBXlXYNxCFOhiId
r3jYdU90RV8mIu++Nx7LPejwa5u1YtZQg1cC24tGO6Ys67Ql/ypTTp2ooyYMZm2v
j+3XIuKX2FEwR67qpVHaf1BRKivtEgrrvwPS9euCpwMnwuoriq3wa81PKnpgCISN
rM4cnfQWdnQGUt1B34D6FAbOSGpv0H76qGormKQnmfK7FpnTlWCCkn5vMP7SAJhz
sl79jXfNre5YTmmaKSsEebf5K9HzobFYuuqTB+nQkvn/2dJeggD62Ba56hksIDGJ
iiTN2QPmi+1/HD2/fDcA5OReIStIjcahXoLZeS3N
-----END CERTIFICATE-----
