-----BEGIN CERTIFICATE-----
MIIDuTCCAqGgAwIBAgIUZsP/jfrjKLOK9ZjwX+srXRJz1zEwDQYJKoZIhvcNAQEL
BQAwbDELMAkGA1UEBhMCSlAxDjAMBgNVBAgMBVRva3lvMQ4wDAYDVQQHDAVGdWNo
dTERMA8GA1UECgwISVRDLkNPUlAxCzAJBgNVBAsMAklUMR0wGwYDVQQDDBRDb25j
ZXJ0b1Jvb3RDYTIwMDUwODAeFw0yMDA1MDcyMjE2MDFaFw00MDA1MDIyMjE2MDFa
MGwxCzAJBgNVBAYTAkpQMQ4wDAYDVQQIDAVUb2t5bzEOMAwGA1UEBwwFRnVjaHUx
ETAPBgNVBAoMCElUQy5DT1JQMQswCQYDVQQLDAJJVDEdMBsGA1UEAwwUQ29uY2Vy
dG9Sb290Q2EyMDA1MDgwggEiMA0GCSqGSIb3DQEBAQUAA4IBDwAwggEKAoIBAQC1
27zUoxV3huVBL99O+QpXLWZ/4pjHsPJjz1G2w7D8bxGXCpzrwBrWOXP9EKiJug8p
iFryArG7SJxB0/i0N7pE00meoKZa9FHTC9hxHYrKsyBRRwbBYGIv5t4uxq4KEVqY
yn9aOPOIzgpV9g4vcaubFuYL5iLY9aM/+i6XL2xZuN9Hu2R5xKpvGC02dI1jTKoi
/aUsqmmaHzfsRVGBhSvDMu8w1rmGUvLtPB3xVuYeS5Gy2ZaMkslhYdBUmXFAfakb
lwOrwQpKNNE6+f7ZEuWZnj3/hdiP2aFMsssV3jcY+p56nnimWfad9oS0tl50gTOH
VzCxe8NObNvYXLAoIGXTAgMBAAGjUzBRMB0GA1UdDgQWBBTjOQrFpG/4ZzkZ9qFd
wMcFbFC03TAfBgNVHSMEGDAWgBTjOQrFpG/4ZzkZ9qFdwMcFbFC03TAPBgNVHRMB
Af8EBTADAQH/MA0GCSqGSIb3DQEBCwUAA4IBAQCTMEDhgZL286F+r6+tqn7uXAdo
L8P5rW444JY22RpJGl8TtxrQ9wWgty5/XrWamNa1bnQIEuQkFayC+VRwqp784h4b
5QE1E3l15tdHDosxnBH/93vBLgAaUzav3z4mseQQMmpxqBs35pHWFY3+EtSXIjUl
RDd0BGcVPNEsDJmg4lZGiyFFKq/hV3bc2JesxgF+7zEsqZYJL/qFbxoD+Qgap3IY
ApPsOfG30bpm/tW3Q+PtrmXE2GrbWMxOpt0EF8xOpZm12a2a6BVwEtJPtIHqGS+y
08h8fQi2YvCh0OjIhluJy80iWpAKujocIDTLn7KdY5CouKxEir5Nn94ldHcN
-----END CERTIFICATE-----
Certificate:
    Data:
        Version: 3 (0x2)
        Serial Number:
            44:fb:38:94:53:ba:23:bd:f6:a3:fa:88:7f:67:81:78:96:4a:3e:ef
        Signature Algorithm: sha256WithRSAEncryption
        Issuer: C=JP, ST=Tokyo, L=Fuchu, O=ITC.CORP, OU=IT, CN=ConcertoRootCa200508
        Validity
            Not Before: May  7 22:16:24 2020 GMT
            Not After : May  2 22:16:24 2040 GMT
        Subject: C=JP, ST=Tokyo, O=ITC.CORP, OU=IT, CN=ConcertoInterCa200508
        Subject Public Key Info:
            Public Key Algorithm: rsaEncryption
                RSA Public-Key: (2048 bit)
                Modulus:
                    00:9d:56:03:4c:da:ff:37:66:53:fe:15:9c:32:2f:
                    91:bf:29:d6:72:55:0a:a9:18:85:62:b5:88:92:c9:
                    09:bd:1c:30:1e:ed:8d:a7:a1:bc:ad:99:81:d6:16:
                    97:cf:36:ae:f6:4b:e6:da:65:99:3f:85:82:a8:bb:
                    de:5f:0d:54:08:2f:67:d6:27:f8:49:2e:ab:06:52:
                    80:d6:88:36:44:9c:3e:f3:d7:ee:54:d7:9a:49:1d:
                    dc:66:7e:c2:4f:36:24:52:5f:d6:60:4b:ed:b0:13:
                    a3:73:b9:11:94:69:aa:3c:3a:ba:18:dc:4a:08:08:
                    a6:a1:15:bb:24:d1:f6:c7:4c:19:6d:19:3e:c9:94:
                    7b:ee:ff:20:9f:b2:69:fa:d9:a2:4b:d2:ec:59:49:
                    fd:14:73:99:78:5f:5b:fd:f0:84:d2:c5:96:9c:5a:
                    b8:93:d9:79:d5:26:9b:67:2a:96:0e:13:7e:8c:2a:
                    77:16:30:97:4b:ca:e8:89:f1:75:12:c8:40:a9:13:
                    45:bb:44:09:48:60:0e:2c:be:93:56:db:25:ad:92:
                    07:d1:1b:9a:72:d2:ee:4d:32:a1:97:6a:e6:59:5d:
                    4f:e6:8b:47:9e:dc:23:6b:50:3e:21:20:42:c7:1d:
                    06:92:d2:a4:62:fe:65:09:cf:13:98:fe:c7:9d:18:
                    89:11
                Exponent: 65537 (0x10001)
        X509v3 extensions:
            X509v3 Subject Key Identifier: 
                12:CD:9A:85:E8:FB:D9:CB:A4:4E:00:FD:8F:34:72:C6:98:C9:3E:D7
            X509v3 Authority Key Identifier: 
                keyid:E3:39:0A:C5:A4:6F:F8:67:39:19:F6:A1:5D:C0:C7:05:6C:50:B4:DD

            X509v3 Basic Constraints: critical
                CA:TRUE
    Signature Algorithm: sha256WithRSAEncryption
         b2:b9:a0:87:29:a5:3c:cb:e6:a3:a4:55:f5:d8:e3:47:f9:dc:
         fc:8e:02:ff:8d:d7:da:1d:62:1c:e0:83:24:5c:39:32:33:5e:
         23:09:61:5b:8c:e6:75:cc:ce:cf:2b:8f:25:87:ec:ce:34:09:
         9e:84:46:a4:b1:18:6d:8f:62:e7:60:74:76:bb:05:73:1f:95:
         99:a0:8a:c8:98:eb:8b:26:71:d9:14:4f:06:7f:c0:56:ba:e4:
         f1:80:99:df:e8:66:c5:a0:4d:8f:34:ed:ea:bd:f7:ae:25:ff:
         eb:a9:06:a4:f9:6a:1b:89:01:7d:72:5e:b3:05:d9:6b:4a:46:
         2e:5e:1b:07:67:9a:e2:0f:47:7d:ef:6b:3b:b1:97:4a:08:d2:
         08:04:52:7b:f9:55:34:2c:a1:49:ba:e4:3d:83:62:38:22:30:
         26:6d:c0:4f:2f:74:6f:ed:f6:7e:bb:d1:d0:9c:bc:77:5c:11:
         a4:65:38:8c:e5:a7:08:49:36:f4:ef:79:c9:62:6d:61:d8:13:
         8a:7b:15:6a:1c:23:2a:e4:0e:21:fd:88:d3:cf:85:02:db:5b:
         a4:eb:fd:93:7a:39:6b:6f:0c:e0:28:27:19:e1:94:4a:78:0a:
         db:ce:63:08:94:55:e7:28:2b:b7:1c:d7:05:74:57:2f:80:a3:
         11:c7:c0:04
-----BEGIN CERTIFICATE-----
MIIDqjCCApKgAwIBAgIURPs4lFO6I732o/qIf2eBeJZKPu8wDQYJKoZIhvcNAQEL
BQAwbDELMAkGA1UEBhMCSlAxDjAMBgNVBAgMBVRva3lvMQ4wDAYDVQQHDAVGdWNo
dTERMA8GA1UECgwISVRDLkNPUlAxCzAJBgNVBAsMAklUMR0wGwYDVQQDDBRDb25j
ZXJ0b1Jvb3RDYTIwMDUwODAeFw0yMDA1MDcyMjE2MjRaFw00MDA1MDIyMjE2MjRa
MF0xCzAJBgNVBAYTAkpQMQ4wDAYDVQQIDAVUb2t5bzERMA8GA1UECgwISVRDLkNP
UlAxCzAJBgNVBAsMAklUMR4wHAYDVQQDDBVDb25jZXJ0b0ludGVyQ2EyMDA1MDgw
ggEiMA0GCSqGSIb3DQEBAQUAA4IBDwAwggEKAoIBAQCdVgNM2v83ZlP+FZwyL5G/
KdZyVQqpGIVitYiSyQm9HDAe7Y2nobytmYHWFpfPNq72S+baZZk/hYKou95fDVQI
L2fWJ/hJLqsGUoDWiDZEnD7z1+5U15pJHdxmfsJPNiRSX9ZgS+2wE6NzuRGUaao8
OroY3EoICKahFbsk0fbHTBltGT7JlHvu/yCfsmn62aJL0uxZSf0Uc5l4X1v98ITS
xZacWriT2XnVJptnKpYOE36MKncWMJdLyuiJ8XUSyECpE0W7RAlIYA4svpNW2yWt
kgfRG5py0u5NMqGXauZZXU/mi0ee3CNrUD4hIELHHQaS0qRi/mUJzxOY/sedGIkR
AgMBAAGjUzBRMB0GA1UdDgQWBBQSzZqF6PvZy6ROAP2PNHLGmMk+1zAfBgNVHSME
GDAWgBTjOQrFpG/4ZzkZ9qFdwMcFbFC03TAPBgNVHRMBAf8EBTADAQH/MA0GCSqG
SIb3DQEBCwUAA4IBAQCyuaCHKaU8y+ajpFX12ONH+dz8jgL/jdfaHWIc4IMkXDky
M14jCWFbjOZ1zM7PK48lh+zONAmehEaksRhtj2LnYHR2uwVzH5WZoIrImOuLJnHZ
FE8Gf8BWuuTxgJnf6GbFoE2PNO3qvfeuJf/rqQak+WobiQF9cl6zBdlrSkYuXhsH
Z5riD0d972s7sZdKCNIIBFJ7+VU0LKFJuuQ9g2I4IjAmbcBPL3Rv7fZ+u9HQnLx3
XBGkZTiM5acISTb073nJYm1h2BOKexVqHCMq5A4h/YjTz4UC21uk6/2Tejlrbwzg
KCcZ4ZRKeArbzmMIlFXnKCu3HNcFdFcvgKMRx8AE
-----END CERTIFICATE-----
Certificate:
    Data:
        Version: 3 (0x2)
        Serial Number:
            79:7a:0b:49:3c:e6:27:c2:f4:2e:1e:da:11:23:e8:44:b8:2a:ef:19
        Signature Algorithm: sha256WithRSAEncryption
        Issuer: C=JP, ST=Tokyo, O=ITC.CORP, OU=IT, CN=ConcertoInterCa200508
        Validity
            Not Before: May  8 00:03:50 2020 GMT
            Not After : May  3 00:03:50 2040 GMT
        Subject: C=JP, ST=Tokyo, O=ITC.CORP, OU=IT, CN=itcp1913571.toshiba.local
        Subject Public Key Info:
            Public Key Algorithm: rsaEncryption
                RSA Public-Key: (2048 bit)
                Modulus:
                    00:e9:c9:ff:3d:1b:8d:de:09:5a:55:da:a9:67:80:
                    54:19:bc:e3:b4:07:40:65:a4:ef:f8:48:8c:33:12:
                    8a:26:8a:f5:e1:a7:cf:aa:4d:c9:a2:ec:c4:d6:9b:
                    ee:cf:5c:f7:5a:32:b4:a4:d0:be:2e:16:7e:d6:8f:
                    14:60:fb:1f:c0:24:67:4e:1b:bf:78:4c:cd:bf:d6:
                    e3:0b:fc:84:45:28:5b:82:ea:b2:4b:8b:36:00:d2:
                    64:af:11:3c:39:27:e6:64:12:96:93:e9:e9:a0:1f:
                    d2:82:39:04:31:0f:8e:5d:02:23:32:32:09:5c:bc:
                    57:9d:55:25:22:61:b7:d4:ed:73:57:e3:a7:37:8a:
                    c1:78:7c:e9:7a:fe:b7:2a:94:94:bd:8e:26:dc:b7:
                    e8:60:eb:5d:ea:31:b4:b8:ea:50:b2:fa:24:4a:93:
                    22:eb:8e:c8:5c:97:7c:87:e6:f6:16:ed:5f:fc:09:
                    ce:23:31:0e:6a:b2:59:14:1e:93:e5:e4:c1:54:a5:
                    64:63:b4:10:fa:7d:21:a4:3a:19:4e:bf:d0:ab:a7:
                    27:d8:a1:47:1d:2c:a9:c4:e1:a8:e6:88:88:61:92:
                    ed:b3:6e:53:71:0d:2f:a3:36:da:da:ba:88:13:37:
                    e5:a5:e7:e8:5c:4d:1f:18:56:09:aa:92:ad:25:37:
                    fe:c3
                Exponent: 65537 (0x10001)
        X509v3 extensions:
            X509v3 Basic Constraints: 
                CA:FALSE
            X509v3 Key Usage: 
                Digital Signature, Key Encipherment
            X509v3 Extended Key Usage: 
                TLS Web Server Authentication
            X509v3 Subject Key Identifier: 
                65:14:F9:C7:6F:25:9F:23:BC:03:31:47:DC:24:92:8B:0E:2E:3A:D8
            X509v3 Authority Key Identifier: 
                keyid:12:CD:9A:85:E8:FB:D9:CB:A4:4E:00:FD:8F:34:72:C6:98:C9:3E:D7

    Signature Algorithm: sha256WithRSAEncryption
         76:9c:b9:1b:f9:3f:ea:13:ef:8d:a6:ae:5a:4a:8d:65:44:13:
         18:66:3a:7d:b1:b5:88:57:44:f7:8e:25:38:ba:b1:cb:97:c3:
         85:c4:94:c7:78:bd:c0:38:c6:aa:45:0d:cd:51:6e:b5:fd:e3:
         5d:0f:7d:fd:53:37:68:88:20:e9:0d:54:e7:28:7a:32:a5:49:
         dc:fb:c8:cc:f3:8f:72:cd:80:6d:1e:99:fe:01:44:8e:58:d4:
         c8:99:99:05:55:67:f1:a6:ef:62:a1:39:cc:aa:de:cb:bf:f1:
         8e:30:02:b5:63:74:b6:21:6f:e0:3e:23:d4:e4:65:fd:4f:40:
         f5:6f:2c:31:41:16:aa:72:0b:e3:40:02:16:1c:a1:69:46:de:
         cd:f5:27:06:6f:68:94:4d:67:9b:05:f8:9b:5a:0d:80:4f:3d:
         61:ba:c2:c7:48:9d:41:54:64:0f:03:db:71:68:48:da:6a:88:
         bc:a1:3f:d3:a7:5f:1b:35:90:e5:cc:4b:dc:97:48:14:2c:7b:
         5f:38:33:91:8c:7d:df:68:c4:d8:68:31:4c:96:ed:6d:0d:54:
         12:5c:ec:68:cd:16:37:64:08:32:c0:97:42:b3:f4:04:34:14:
         59:06:ad:11:ac:b0:f2:73:ec:f0:9d:7b:75:7c:40:91:5a:35:
         98:e8:56:e0
-----BEGIN CERTIFICATE-----
MIIDuzCCAqOgAwIBAgIUeXoLSTzmJ8L0Lh7aESPoRLgq7xkwDQYJKoZIhvcNAQEL
BQAwXTELMAkGA1UEBhMCSlAxDjAMBgNVBAgMBVRva3lvMREwDwYDVQQKDAhJVEMu
Q09SUDELMAkGA1UECwwCSVQxHjAcBgNVBAMMFUNvbmNlcnRvSW50ZXJDYTIwMDUw
ODAeFw0yMDA1MDgwMDAzNTBaFw00MDA1MDMwMDAzNTBaMGExCzAJBgNVBAYTAkpQ
MQ4wDAYDVQQIDAVUb2t5bzERMA8GA1UECgwISVRDLkNPUlAxCzAJBgNVBAsMAklU
MSIwIAYDVQQDDBlpdGNwMTkxMzU3MS50b3NoaWJhLmxvY2FsMIIBIjANBgkqhkiG
9w0BAQEFAAOCAQ8AMIIBCgKCAQEA6cn/PRuN3glaVdqpZ4BUGbzjtAdAZaTv+EiM
MxKKJor14afPqk3JouzE1pvuz1z3WjK0pNC+LhZ+1o8UYPsfwCRnThu/eEzNv9bj
C/yERShbguqyS4s2ANJkrxE8OSfmZBKWk+npoB/SgjkEMQ+OXQIjMjIJXLxXnVUl
ImG31O1zV+OnN4rBeHzpev63KpSUvY4m3LfoYOtd6jG0uOpQsvokSpMi647IXJd8
h+b2Fu1f/AnOIzEOarJZFB6T5eTBVKVkY7QQ+n0hpDoZTr/Qq6cn2KFHHSypxOGo
5oiIYZLts25TcQ0vozba2rqIEzflpefoXE0fGFYJqpKtJTf+wwIDAQABo28wbTAJ
BgNVHRMEAjAAMAsGA1UdDwQEAwIFoDATBgNVHSUEDDAKBggrBgEFBQcDATAdBgNV
HQ4EFgQUZRT5x28lnyO8AzFH3CSSiw4uOtgwHwYDVR0jBBgwFoAUEs2ahej72cuk
TgD9jzRyxpjJPtcwDQYJKoZIhvcNAQELBQADggEBAHacuRv5P+oT742mrlpKjWVE
ExhmOn2xtYhXRPeOJTi6scuXw4XElMd4vcA4xqpFDc1RbrX9410Pff1TN2iIIOkN
VOcoejKlSdz7yMzzj3LNgG0emf4BRI5Y1MiZmQVVZ/Gm72KhOcyq3su/8Y4wArVj
dLYhb+A+I9TkZf1PQPVvLDFBFqpyC+NAAhYcoWlG3s31JwZvaJRNZ5sF+JtaDYBP
PWG6wsdInUFUZA8D23FoSNpqiLyhP9OnXxs1kOXMS9yXSBQse184M5GMfd9oxNho
MUyW7W0NVBJc7GjNFjdkCDLAl0Kz9AQ0FFkGrRGssPJz7PCde3V8QJFaNZjoVuA=
-----END CERTIFICATE-----
