Certificate:
    Data:
        Version: 3 (0x2)
        Serial Number:
            47:a7:3b:37:5f:e4:95:00:d3:06:cf:d4:90:1a:bf:72:ac:57:c7:2b
        Signature Algorithm: sha256WithRSAEncryption
        Issuer: C=JP, ST=Tokyo, O=ITC.CORP, OU=IT, CN=ConcertoInterCa200507
        Validity
            Not Before: May 11 02:00:03 2020 GMT
            Not After : Jul 10 02:00:03 2021 GMT
        Subject: C=JP, ST=Tokyo, O=ITC.CORP, OU=IT, CN=ConcertoClient200511
        Subject Public Key Info:
            Public Key Algorithm: rsaEncryption
                RSA Public-Key: (2048 bit)
                Modulus:
                    00:b6:af:34:0d:02:ab:c6:e9:d4:e2:bb:cf:c1:14:
                    09:5c:15:3e:23:9f:38:67:2c:78:a3:ab:e3:d7:4f:
                    c7:c8:2d:77:cd:6f:51:78:5f:8b:4e:7e:d0:0f:6f:
                    42:a0:5f:67:50:3c:1c:49:68:66:55:fd:20:e2:b5:
                    00:8f:ce:e0:c9:47:85:d4:21:35:b2:e9:c8:1a:85:
                    f3:87:d8:d2:c5:f6:25:9f:d5:a8:ff:6f:75:9f:07:
                    ba:c5:da:f1:22:92:dd:3a:98:eb:65:29:84:fb:10:
                    46:d6:50:bf:4e:b5:7b:38:69:be:0f:4e:1e:05:9b:
                    3f:37:66:2b:56:07:1e:01:20:87:08:9f:7a:05:a2:
                    66:1d:15:5f:7b:1c:a0:b6:19:16:f3:94:f6:78:f3:
                    2e:e5:af:88:18:f1:9d:e8:6c:e1:54:ba:78:a2:b9:
                    3e:3e:7a:5c:b0:f8:6c:38:e8:31:1d:71:62:48:02:
                    7d:9f:6a:89:ab:e9:8d:e3:21:f0:85:56:cc:2a:7f:
                    f6:6a:90:62:d9:9f:ef:7b:26:77:01:08:8e:83:f9:
                    5a:96:3b:e9:b7:cd:a8:fa:d4:dc:b2:32:b6:64:9a:
                    bf:55:32:f0:69:6f:f0:11:dd:cb:7b:7c:2e:2c:1d:
                    e9:6e:0b:81:fa:48:c9:c3:77:67:98:2f:30:8a:47:
                    fc:4d
                Exponent: 65537 (0x10001)
        X509v3 extensions:
            X509v3 Basic Constraints: 
                CA:FALSE
            X509v3 Key Usage: 
                Digital Signature, Key Encipherment
            X509v3 Extended Key Usage: 
                TLS Web Client Authentication
            X509v3 Subject Key Identifier: 
                A2:36:D3:AE:10:A1:28:B9:5A:CB:8E:CD:F8:27:62:B3:5A:E0:2C:31
            X509v3 Authority Key Identifier: 
                keyid:6E:8E:30:E6:3B:F4:45:42:38:37:1C:F0:16:DC:D4:54:0E:E4:DB:B8

    Signature Algorithm: sha256WithRSAEncryption
         73:78:48:64:39:a4:ad:7d:02:5f:19:e4:29:34:7f:8c:dd:20:
         3a:c0:f6:44:56:ff:85:e0:fd:48:53:92:ec:13:11:dc:fb:6c:
         6b:60:dc:46:e5:f4:33:18:2c:85:32:59:43:00:1f:b1:ba:0e:
         82:6c:0c:d9:70:9a:0d:7a:2b:03:00:22:c0:16:c5:83:e4:d3:
         0c:2f:ca:0a:2d:44:1a:33:d7:9c:35:1a:30:93:ff:ec:8c:63:
         aa:18:7b:08:0f:dc:e9:35:77:c8:3a:8d:a3:e3:ab:08:0b:f7:
         b8:24:03:31:ae:be:10:82:79:c3:0e:52:ba:cf:f3:67:fa:f1:
         ed:fe:03:2f:43:21:ac:dd:16:b2:fd:7c:10:b7:cf:8a:b4:6c:
         59:1f:b9:46:3d:8b:bb:68:05:a2:59:bc:38:51:18:40:c4:55:
         e9:20:7c:b6:c4:ea:56:84:3c:7c:7c:bf:81:c0:79:9a:bb:57:
         c6:0a:96:b7:87:05:60:bc:01:78:b8:ed:11:c9:74:00:55:29:
         44:56:9a:7e:54:df:37:2f:d7:51:f5:72:9a:19:8b:0d:22:4c:
         72:26:a7:86:9b:a5:5f:80:60:75:6e:e5:88:87:fc:c5:e4:5f:
         a3:0c:73:28:ff:27:fa:0a:94:74:fa:ca:13:75:78:f8:79:94:
         da:e8:8f:93
-----BEGIN CERTIFICATE-----
MIIDtjCCAp6gAwIBAgIUR6c7N1/klQDTBs/UkBq/cqxXxyswDQYJKoZIhvcNAQEL
BQAwXTELMAkGA1UEBhMCSlAxDjAMBgNVBAgMBVRva3lvMREwDwYDVQQKDAhJVEMu
Q09SUDELMAkGA1UECwwCSVQxHjAcBgNVBAMMFUNvbmNlcnRvSW50ZXJDYTIwMDUw
NzAeFw0yMDA1MTEwMjAwMDNaFw0yMTA3MTAwMjAwMDNaMFwxCzAJBgNVBAYTAkpQ
MQ4wDAYDVQQIDAVUb2t5bzERMA8GA1UECgwISVRDLkNPUlAxCzAJBgNVBAsMAklU
MR0wGwYDVQQDDBRDb25jZXJ0b0NsaWVudDIwMDUxMTCCASIwDQYJKoZIhvcNAQEB
BQADggEPADCCAQoCggEBALavNA0Cq8bp1OK7z8EUCVwVPiOfOGcseKOr49dPx8gt
d81vUXhfi05+0A9vQqBfZ1A8HEloZlX9IOK1AI/O4MlHhdQhNbLpyBqF84fY0sX2
JZ/VqP9vdZ8HusXa8SKS3TqY62UphPsQRtZQv061ezhpvg9OHgWbPzdmK1YHHgEg
hwifegWiZh0VX3scoLYZFvOU9njzLuWviBjxnehs4VS6eKK5Pj56XLD4bDjoMR1x
YkgCfZ9qiavpjeMh8IVWzCp/9mqQYtmf73smdwEIjoP5WpY76bfNqPrU3LIytmSa
v1Uy8Glv8BHdy3t8Liwd6W4LgfpIycN3Z5gvMIpH/E0CAwEAAaNvMG0wCQYDVR0T
BAIwADALBgNVHQ8EBAMCBaAwEwYDVR0lBAwwCgYIKwYBBQUHAwIwHQYDVR0OBBYE
FKI2064QoSi5WsuOzfgnYrNa4CwxMB8GA1UdIwQYMBaAFG6OMOY79EVCODcc8Bbc
1FQO5Nu4MA0GCSqGSIb3DQEBCwUAA4IBAQBzeEhkOaStfQJfGeQpNH+M3SA6wPZE
Vv+F4P1IU5LsExHc+2xrYNxG5fQzGCyFMllDAB+xug6CbAzZcJoNeisDACLAFsWD
5NMML8oKLUQaM9ecNRowk//sjGOqGHsID9zpNXfIOo2j46sIC/e4JAMxrr4QgnnD
DlK6z/Nn+vHt/gMvQyGs3Ray/XwQt8+KtGxZH7lGPYu7aAWiWbw4URhAxFXpIHy2
xOpWhDx8fL+BwHmau1fGCpa3hwVgvAF4uO0RyXQAVSlEVpp+VN83L9dR9XKaGYsN
IkxyJqeGm6VfgGB1buWIh/zF5F+jDHMo/yf6CpR0+soTdXj4eZTa6I+T
-----END CERTIFICATE-----
