Certificate:
    Data:
        Version: 3 (0x2)
        Serial Number:
            79:6c:84:6f:7b:39:58:85:b8:f3:5c:29:62:3e:45:06:c6:11:87:13
        Signature Algorithm: sha256WithRSAEncryption
        Issuer: C=JP, ST=Tokyo, O=ITC.CORP, OU=IT, CN=ConcertoInterCa200507
        Validity
            Not Before: May  7 04:58:44 2020 GMT
            Not After : Jul  6 04:58:44 2021 GMT
        Subject: C=JP, ST=Tokyo, O=ITC.CORP, OU=IT, CN=ConcertoClient200507
        Subject Public Key Info:
            Public Key Algorithm: rsaEncryption
                RSA Public-Key: (2048 bit)
                Modulus:
                    00:f6:0a:e6:dd:6c:be:15:03:ad:4d:14:05:c5:f3:
                    5e:5b:c9:12:97:ba:ca:e2:11:01:42:83:b0:f6:24:
                    b1:5a:11:88:c7:97:b2:72:ca:0e:75:76:01:73:bf:
                    fb:f4:37:51:ae:09:20:fb:6e:3d:65:d8:d7:74:2d:
                    3f:c4:b0:2c:c5:a3:c0:fa:17:c3:1b:af:e6:69:68:
                    24:7d:ad:9a:8e:7f:0d:19:d2:87:7c:2c:ba:77:56:
                    2d:10:e7:c5:c6:f7:eb:f9:0d:ff:a0:e4:44:21:6c:
                    ff:39:87:f9:fd:73:40:36:8b:f2:82:10:0c:3b:b1:
                    f2:12:06:79:94:9c:25:e5:c7:2f:09:84:ac:57:26:
                    1d:09:a8:e5:ab:ee:87:2d:86:24:84:ea:9e:45:dd:
                    02:d4:4d:c3:ad:7a:3f:9c:dd:ac:ea:ab:a6:95:a2:
                    07:7e:ac:0a:4c:aa:dd:e2:9d:d3:31:03:b9:5a:6f:
                    d1:58:d4:57:66:b1:b5:5c:09:4e:cb:45:65:56:3d:
                    50:10:50:ab:34:49:db:af:36:0f:67:a3:de:97:cc:
                    e7:ae:65:c3:26:75:8e:22:64:d3:32:d3:b2:e8:58:
                    bc:8d:cc:6d:9f:1a:1e:04:ae:ad:cd:ee:3e:0b:dc:
                    1b:77:8c:e5:d0:8b:61:cf:57:91:17:4e:90:e2:2c:
                    97:d9
                Exponent: 65537 (0x10001)
        X509v3 extensions:
            X509v3 Basic Constraints: 
                CA:FALSE
            X509v3 Key Usage: 
                Digital Signature, Key Encipherment
            X509v3 Extended Key Usage: 
                TLS Web Client Authentication
            X509v3 Subject Key Identifier: 
                06:95:92:80:DE:54:56:E4:CF:15:6D:AA:E9:7F:F1:BA:B6:41:5A:76
            X509v3 Authority Key Identifier: 
                keyid:6E:8E:30:E6:3B:F4:45:42:38:37:1C:F0:16:DC:D4:54:0E:E4:DB:B8

    Signature Algorithm: sha256WithRSAEncryption
         92:11:49:75:f7:dd:b9:51:e0:d2:34:e5:13:db:df:c1:31:62:
         02:fa:88:de:ba:9d:0b:1e:e1:40:2b:cb:b9:0f:dd:d2:91:a5:
         5e:b6:33:3c:c9:16:f1:c2:17:2a:7c:e2:ac:03:e5:a7:a5:ed:
         c4:55:d2:43:32:82:24:f1:d7:d0:83:d7:77:9b:d1:f7:cd:36:
         ad:f1:ce:4a:16:2d:d0:dd:a8:ce:fa:85:24:25:5f:5d:22:ad:
         54:5c:4f:80:43:b5:78:54:96:b1:e2:5b:3e:1b:90:d6:f0:f6:
         54:81:0c:06:f9:52:e3:24:2a:9d:d0:d1:2d:8c:f0:e0:60:c1:
         95:39:ae:6b:19:f0:8d:28:89:f0:5e:62:9e:8c:d3:da:44:d3:
         aa:5f:4e:b9:dc:f1:46:93:63:b1:f2:44:59:1d:f6:71:1b:54:
         f9:28:f2:e2:41:77:e1:97:88:aa:ce:b6:8a:3a:96:4d:d7:c3:
         e2:90:ad:d0:3c:8e:1e:c8:b8:5e:a9:2d:41:40:5b:e3:9f:f7:
         b8:e1:bd:96:1d:20:a5:92:ec:b6:b1:69:04:7f:7b:27:7b:2c:
         11:e4:0e:f3:1e:5a:98:1f:ec:26:57:37:9c:d7:a6:9d:6d:7a:
         4c:a0:3c:05:88:95:af:3f:4c:ae:93:c8:2e:bd:93:96:f5:74:
         c2:2a:d7:8b
-----BEGIN CERTIFICATE-----
MIIDtjCCAp6gAwIBAgIUeWyEb3s5WIW481wpYj5FBsYRhxMwDQYJKoZIhvcNAQEL
BQAwXTELMAkGA1UEBhMCSlAxDjAMBgNVBAgMBVRva3lvMREwDwYDVQQKDAhJVEMu
Q09SUDELMAkGA1UECwwCSVQxHjAcBgNVBAMMFUNvbmNlcnRvSW50ZXJDYTIwMDUw
NzAeFw0yMDA1MDcwNDU4NDRaFw0yMTA3MDYwNDU4NDRaMFwxCzAJBgNVBAYTAkpQ
MQ4wDAYDVQQIDAVUb2t5bzERMA8GA1UECgwISVRDLkNPUlAxCzAJBgNVBAsMAklU
MR0wGwYDVQQDDBRDb25jZXJ0b0NsaWVudDIwMDUwNzCCASIwDQYJKoZIhvcNAQEB
BQADggEPADCCAQoCggEBAPYK5t1svhUDrU0UBcXzXlvJEpe6yuIRAUKDsPYksVoR
iMeXsnLKDnV2AXO/+/Q3Ua4JIPtuPWXY13QtP8SwLMWjwPoXwxuv5mloJH2tmo5/
DRnSh3wsundWLRDnxcb36/kN/6DkRCFs/zmH+f1zQDaL8oIQDDux8hIGeZScJeXH
LwmErFcmHQmo5avuhy2GJITqnkXdAtRNw616P5zdrOqrppWiB36sCkyq3eKd0zED
uVpv0VjUV2axtVwJTstFZVY9UBBQqzRJ2682D2ej3pfM565lwyZ1jiJk0zLTsuhY
vI3MbZ8aHgSurc3uPgvcG3eM5dCLYc9XkRdOkOIsl9kCAwEAAaNvMG0wCQYDVR0T
BAIwADALBgNVHQ8EBAMCBaAwEwYDVR0lBAwwCgYIKwYBBQUHAwIwHQYDVR0OBBYE
FAaVkoDeVFbkzxVtqul/8bq2QVp2MB8GA1UdIwQYMBaAFG6OMOY79EVCODcc8Bbc
1FQO5Nu4MA0GCSqGSIb3DQEBCwUAA4IBAQCSEUl19925UeDSNOUT29/BMWIC+oje
up0LHuFAK8u5D93SkaVetjM8yRbxwhcqfOKsA+Wnpe3EVdJDMoIk8dfQg9d3m9H3
zTat8c5KFi3Q3ajO+oUkJV9dIq1UXE+AQ7V4VJax4ls+G5DW8PZUgQwG+VLjJCqd
0NEtjPDgYMGVOa5rGfCNKInwXmKejNPaRNOqX0653PFGk2Ox8kRZHfZxG1T5KPLi
QXfhl4iqzraKOpZN18PikK3QPI4eyLheqS1BQFvjn/e44b2WHSClkuy2sWkEf3sn
eywR5A7zHlqYH+wmVzec16adbXpMoDwFiJWvP0yuk8guvZOW9XTCKteL
-----END CERTIFICATE-----
