-----BEGIN CERTIFICATE-----
MIIDuTCCAqGgAwIBAgIUBpp6rBl9cgzM/85dC87Guljb4zQwDQYJKoZIhvcNAQEL
BQAwbDELMAkGA1UEBhMCSlAxDjAMBgNVBAgMBVRva3lvMQ4wDAYDVQQHDAVGdWNo
dTERMA8GA1UECgwISVRDLkNPUlAxCzAJBgNVBAsMAklUMR0wGwYDVQQDDBRDb25j
ZXJ0b1Jvb3RDYTIwMDUwODAeFw0yMDA1MDcyMzAzMDlaFw0zMDA1MDUyMzAzMDla
MGwxCzAJBgNVBAYTAkpQMQ4wDAYDVQQIDAVUb2t5bzEOMAwGA1UEBwwFRnVjaHUx
ETAPBgNVBAoMCElUQy5DT1JQMQswCQYDVQQLDAJJVDEdMBsGA1UEAwwUQ29uY2Vy
dG9Sb290Q2EyMDA1MDgwggEiMA0GCSqGSIb3DQEBAQUAA4IBDwAwggEKAoIBAQCv
kRhvOvai4m+5Yd6lwKs0tRYc4KaIFfnogVNgKIDvBxAn3kOaLYyWyJB9ybnOopz3
8WRDPU1Jtg1S80xIh9YVqrxazqdIXDMT6ojiqcdG/5xQ5B4B1fGZPaQhB8ChmNmS
4iSXTYcux8zMricT4f1I5nHEXVNtipuDspeOOI5cDw9UxvQ7XyTunptkOtE8eJnt
k/pLkATjuTntWyNR/jdxcNCiowOx6Xt5+nbpTLrjcBZMMrp3nw1diACxxhZaq58q
yIzYdJxR2Kw3ZemtvOSUqkCW1AwK8OU7L0DeFt1v+K9P1FYRZbEQGOrgBeCYYQLY
X3Jx+caRuZ/hwU5c9EAJAgMBAAGjUzBRMB0GA1UdDgQWBBSxO6uBMEiNSmGOkVnf
t1EzbFGwYTAfBgNVHSMEGDAWgBSxO6uBMEiNSmGOkVnft1EzbFGwYTAPBgNVHRMB
Af8EBTADAQH/MA0GCSqGSIb3DQEBCwUAA4IBAQCZVX+NHky5zAhdDQTBvYseXREg
bVQN1vRXYLqw+Y3eqXqtmwWsBLEq9I3q9FdjqxL3TncFgbWk6hcB+Kc1Y5noA2EY
ssZrnVNcBiEVdWtl3r+Bc2u7JQCA9Uh5cFMAl1zl4FXNTFl5/sF8uNeHvEUaPT4o
fIavEDm1QPBHsF/qxMXNkFM1dPN2CE8n/53HqgkvaFfW/CQz8LQXspHLennMRQpS
GUIy0l9gNtQWPA1MCkoGjKFayLEzwkpcBXDc/HVJg0nn5GLoINzxnAPS7zNhOSDd
nklVtcSf3JQyTRbtMlVMvM5J5tgO14A0d/oTKhbkVtxYRG9JD08Pb54cASZD
-----END CERTIFICATE-----
Certificate:
    Data:
        Version: 3 (0x2)
        Serial Number:
            1c:b5:6b:e1:77:d0:15:c7:03:3d:a1:87:f7:20:f0:8a:8b:9c:ff:25
        Signature Algorithm: sha256WithRSAEncryption
        Issuer: C=JP, ST=Tokyo, L=Fuchu, O=ITC.CORP, OU=IT, CN=ConcertoRootCa200508
        Validity
            Not Before: May  7 23:03:29 2020 GMT
            Not After : May  5 23:03:29 2030 GMT
        Subject: C=JP, ST=Tokyo, O=ITC.CORP, OU=IT, CN=ConcertoInterCa200508
        Subject Public Key Info:
            Public Key Algorithm: rsaEncryption
                RSA Public-Key: (2048 bit)
                Modulus:
                    00:c1:e8:86:51:fa:bd:54:de:50:43:ac:f6:46:79:
                    ea:e5:5c:53:c0:ff:92:56:49:be:ec:51:c8:67:c9:
                    b2:9c:04:a1:83:01:32:a8:11:d7:3c:03:43:aa:7c:
                    c4:db:5c:61:56:a2:e1:94:82:c4:09:e7:1d:00:b6:
                    06:bc:15:9e:f6:a7:38:54:f8:87:d5:56:81:04:cf:
                    96:f4:10:2b:0f:b7:9e:12:b0:20:08:3f:a4:91:c3:
                    3b:4a:d6:76:a9:00:bf:f0:06:c7:a4:b3:7a:f3:bd:
                    e2:f0:22:a3:91:87:d5:23:5d:8a:57:6c:7f:3c:fc:
                    90:09:c3:35:d3:d4:72:26:3e:5a:12:6a:25:64:0c:
                    a6:80:d0:33:52:ef:08:0e:45:16:76:3b:64:7d:d6:
                    0e:fb:34:0c:cd:05:7a:ed:90:d4:d3:d9:1d:6a:cc:
                    f5:57:c2:a3:89:42:bc:ee:38:f3:ff:49:d0:13:f8:
                    ac:45:b6:c4:06:de:c6:34:e8:54:49:6f:c8:a5:6e:
                    53:f3:ad:34:03:8e:ab:12:46:89:81:d5:54:7b:60:
                    e6:34:01:bf:ec:99:bf:92:7e:c6:ce:bd:3c:85:07:
                    08:02:e5:bb:a9:8f:64:48:a7:90:3e:44:97:50:fb:
                    a8:a0:8a:76:fb:9d:80:2b:03:0c:dd:e8:15:5c:bd:
                    34:bf
                Exponent: 65537 (0x10001)
        X509v3 extensions:
            X509v3 Subject Key Identifier: 
                25:2A:B5:6D:58:86:A2:D3:B8:6A:D2:B1:20:3A:B4:73:A3:BF:53:27
            X509v3 Authority Key Identifier: 
                keyid:B1:3B:AB:81:30:48:8D:4A:61:8E:91:59:DF:B7:51:33:6C:51:B0:61

            X509v3 Basic Constraints: critical
                CA:TRUE
    Signature Algorithm: sha256WithRSAEncryption
         13:f0:af:8b:9c:0e:a9:9b:44:7c:e3:0d:ae:1c:0f:db:9b:8b:
         86:0a:91:69:3b:43:69:27:5c:fb:b3:8a:76:80:64:2b:22:04:
         48:42:66:72:a1:5a:01:24:64:6d:73:eb:24:4f:23:c4:e2:43:
         4d:74:4b:8a:19:b4:8d:a8:22:9d:94:59:0f:7e:a2:26:2f:e6:
         68:e8:f2:9a:4e:b4:74:ec:68:df:43:15:4e:67:3a:52:24:94:
         33:24:a8:44:34:d1:2b:c3:05:b0:3e:73:db:63:40:58:f0:30:
         b5:b7:b7:63:04:2a:01:f3:77:b8:20:18:ed:ac:cf:21:d1:24:
         25:f2:ba:0b:93:47:94:8c:22:50:29:99:25:f2:9d:b9:93:3b:
         3c:8c:35:47:05:f9:14:ff:df:5f:aa:3e:bd:74:35:2f:ac:fb:
         fd:67:fb:38:85:f3:3c:0e:46:d7:c4:60:ed:55:c6:93:a0:d1:
         10:0f:c2:e5:20:e4:f8:5d:96:82:1c:ba:1f:06:08:1a:14:75:
         1e:43:d7:f5:4c:8b:73:76:51:1f:33:cb:1e:17:f3:35:0b:66:
         28:68:eb:ee:2c:77:d6:ca:0d:a2:74:d5:47:20:d9:87:7b:88:
         6a:4e:01:09:e2:8e:f5:67:bd:40:3e:62:9f:f6:7a:20:dc:53:
         fc:86:23:cf
-----BEGIN CERTIFICATE-----
MIIDqjCCApKgAwIBAgIUHLVr4XfQFccDPaGH9yDwiouc/yUwDQYJKoZIhvcNAQEL
BQAwbDELMAkGA1UEBhMCSlAxDjAMBgNVBAgMBVRva3lvMQ4wDAYDVQQHDAVGdWNo
dTERMA8GA1UECgwISVRDLkNPUlAxCzAJBgNVBAsMAklUMR0wGwYDVQQDDBRDb25j
ZXJ0b1Jvb3RDYTIwMDUwODAeFw0yMDA1MDcyMzAzMjlaFw0zMDA1MDUyMzAzMjla
MF0xCzAJBgNVBAYTAkpQMQ4wDAYDVQQIDAVUb2t5bzERMA8GA1UECgwISVRDLkNP
UlAxCzAJBgNVBAsMAklUMR4wHAYDVQQDDBVDb25jZXJ0b0ludGVyQ2EyMDA1MDgw
ggEiMA0GCSqGSIb3DQEBAQUAA4IBDwAwggEKAoIBAQDB6IZR+r1U3lBDrPZGeerl
XFPA/5JWSb7sUchnybKcBKGDATKoEdc8A0OqfMTbXGFWouGUgsQJ5x0Atga8FZ72
pzhU+IfVVoEEz5b0ECsPt54SsCAIP6SRwztK1napAL/wBseks3rzveLwIqORh9Uj
XYpXbH88/JAJwzXT1HImPloSaiVkDKaA0DNS7wgORRZ2O2R91g77NAzNBXrtkNTT
2R1qzPVXwqOJQrzuOPP/SdAT+KxFtsQG3sY06FRJb8ilblPzrTQDjqsSRomB1VR7
YOY0Ab/smb+SfsbOvTyFBwgC5bupj2RIp5A+RJdQ+6iginb7nYArAwzd6BVcvTS/
AgMBAAGjUzBRMB0GA1UdDgQWBBQlKrVtWIai07hq0rEgOrRzo79TJzAfBgNVHSME
GDAWgBSxO6uBMEiNSmGOkVnft1EzbFGwYTAPBgNVHRMBAf8EBTADAQH/MA0GCSqG
SIb3DQEBCwUAA4IBAQAT8K+LnA6pm0R84w2uHA/bm4uGCpFpO0NpJ1z7s4p2gGQr
IgRIQmZyoVoBJGRtc+skTyPE4kNNdEuKGbSNqCKdlFkPfqImL+Zo6PKaTrR07Gjf
QxVOZzpSJJQzJKhENNErwwWwPnPbY0BY8DC1t7djBCoB83e4IBjtrM8h0SQl8roL
k0eUjCJQKZkl8p25kzs8jDVHBfkU/99fqj69dDUvrPv9Z/s4hfM8DkbXxGDtVcaT
oNEQD8LlIOT4XZaCHLofBggaFHUeQ9f1TItzdlEfM8seF/M1C2YoaOvuLHfWyg2i
dNVHINmHe4hqTgEJ4o71Z71APmKf9nog3FP8hiPP
-----END CERTIFICATE-----
Certificate:
    Data:
        Version: 3 (0x2)
        Serial Number:
            16:27:c0:cc:c1:4d:69:0f:e3:a6:6f:3c:d1:6b:31:d5:88:b8:3c:ca
        Signature Algorithm: sha256WithRSAEncryption
        Issuer: C=JP, ST=Tokyo, O=ITC.CORP, OU=IT, CN=ConcertoInterCa200508
        Validity
            Not Before: May  7 23:03:48 2020 GMT
            Not After : May  5 23:03:48 2030 GMT
        Subject: C=JP, ST=Tokyo, O=ITC.CORP, OU=IT, CN=itcp1913571.toshiba.local
        Subject Public Key Info:
            Public Key Algorithm: rsaEncryption
                RSA Public-Key: (2048 bit)
                Modulus:
                    00:c1:5a:98:6d:ae:31:f0:60:71:12:d1:a0:e7:ea:
                    95:40:cf:ef:78:67:c1:88:87:ce:73:4c:b0:bf:57:
                    89:43:cc:fc:6a:03:f0:07:3a:ca:48:18:95:52:8d:
                    65:b0:d5:f8:81:6c:d2:a2:ca:8d:5f:ba:d4:5e:04:
                    17:0d:5b:56:9b:cf:45:58:55:6c:14:04:2a:19:6c:
                    10:6f:45:e2:62:14:d5:b4:9b:33:4a:b5:a0:60:ef:
                    04:87:8e:1b:c3:27:aa:47:f7:80:ab:72:48:86:ee:
                    24:25:64:21:dd:77:e3:e4:8c:e4:1c:eb:c3:b6:27:
                    fc:4d:46:a5:bd:e6:31:84:ef:1a:b3:d7:e8:9c:84:
                    71:c8:c0:89:c2:74:9c:34:d3:60:61:9e:6e:29:5b:
                    f2:78:41:c4:03:86:00:79:fb:9d:dd:91:e6:f7:6f:
                    e9:ad:fe:39:4f:0e:0f:0f:de:73:46:c7:3b:73:af:
                    c6:56:70:3a:5f:e9:63:85:34:82:5d:f3:47:48:a5:
                    62:89:ee:67:46:2d:bd:9e:b0:8e:27:63:a6:6a:5b:
                    5f:cc:7c:be:e4:c6:fb:84:59:77:ac:7d:af:05:aa:
                    7a:7f:8a:cc:b2:22:cd:4c:11:3f:d9:00:66:2c:28:
                    e2:21:76:cb:bf:83:25:1f:06:39:70:44:bb:36:18:
                    98:b3
                Exponent: 65537 (0x10001)
        X509v3 extensions:
            X509v3 Basic Constraints: 
                CA:FALSE
            X509v3 Key Usage: 
                Digital Signature, Key Encipherment
            X509v3 Extended Key Usage: 
                TLS Web Server Authentication
            X509v3 Subject Key Identifier: 
                E2:E5:06:A7:67:85:F9:07:D0:8A:50:4A:46:9C:10:FD:A0:2D:E7:73
            X509v3 Authority Key Identifier: 
                keyid:25:2A:B5:6D:58:86:A2:D3:B8:6A:D2:B1:20:3A:B4:73:A3:BF:53:27

    Signature Algorithm: sha256WithRSAEncryption
         32:68:96:5c:76:f5:a9:63:d6:66:04:c6:f4:db:12:e8:69:f1:
         f4:d9:b5:6f:ab:c9:c8:1f:1b:ec:86:3a:0d:c2:58:d4:eb:06:
         34:34:cc:df:8a:de:7e:95:35:d0:42:22:6d:f8:d1:82:75:4b:
         55:12:41:44:c3:6e:81:15:03:be:2e:a7:7e:eb:51:5a:40:44:
         d5:56:31:12:92:e1:85:03:20:90:d3:82:2f:83:34:8a:78:cf:
         db:ef:b5:2b:75:20:53:93:10:2e:95:4d:28:b8:41:9a:db:d7:
         39:d4:e5:1f:cc:a7:4f:a0:a0:e2:ef:53:79:52:f5:96:7c:0b:
         18:89:07:61:f0:ac:37:ba:a3:37:66:24:66:a6:6d:61:2d:a7:
         ee:3b:6a:80:7f:e0:a9:b2:51:ce:7d:d0:80:4a:15:08:39:d5:
         ca:c7:96:23:f3:05:b1:92:a2:15:b5:0e:d0:73:82:2f:01:00:
         84:39:d2:24:98:5c:5d:e8:c6:b8:4b:f1:59:ce:98:ee:4a:fb:
         44:09:7e:98:ef:8d:cf:51:e8:dd:79:36:08:91:25:cf:3b:a6:
         df:16:32:10:de:59:4c:a4:2c:51:68:41:b5:8c:1e:2c:4e:48:
         fa:f3:83:76:21:95:7b:9a:c7:b9:fe:6e:5f:e1:e8:77:34:7e:
         39:01:e0:ef
-----BEGIN CERTIFICATE-----
MIIDuzCCAqOgAwIBAgIUFifAzMFNaQ/jpm880Wsx1Yi4PMowDQYJKoZIhvcNAQEL
BQAwXTELMAkGA1UEBhMCSlAxDjAMBgNVBAgMBVRva3lvMREwDwYDVQQKDAhJVEMu
Q09SUDELMAkGA1UECwwCSVQxHjAcBgNVBAMMFUNvbmNlcnRvSW50ZXJDYTIwMDUw
ODAeFw0yMDA1MDcyMzAzNDhaFw0zMDA1MDUyMzAzNDhaMGExCzAJBgNVBAYTAkpQ
MQ4wDAYDVQQIDAVUb2t5bzERMA8GA1UECgwISVRDLkNPUlAxCzAJBgNVBAsMAklU
MSIwIAYDVQQDDBlpdGNwMTkxMzU3MS50b3NoaWJhLmxvY2FsMIIBIjANBgkqhkiG
9w0BAQEFAAOCAQ8AMIIBCgKCAQEAwVqYba4x8GBxEtGg5+qVQM/veGfBiIfOc0yw
v1eJQ8z8agPwBzrKSBiVUo1lsNX4gWzSosqNX7rUXgQXDVtWm89FWFVsFAQqGWwQ
b0XiYhTVtJszSrWgYO8Eh44bwyeqR/eAq3JIhu4kJWQh3Xfj5IzkHOvDtif8TUal
veYxhO8as9fonIRxyMCJwnScNNNgYZ5uKVvyeEHEA4YAefud3ZHm92/prf45Tw4P
D95zRsc7c6/GVnA6X+ljhTSCXfNHSKViie5nRi29nrCOJ2OmaltfzHy+5Mb7hFl3
rH2vBap6f4rMsiLNTBE/2QBmLCjiIXbLv4MlHwY5cES7NhiYswIDAQABo28wbTAJ
BgNVHRMEAjAAMAsGA1UdDwQEAwIFoDATBgNVHSUEDDAKBggrBgEFBQcDATAdBgNV
HQ4EFgQU4uUGp2eF+QfQilBKRpwQ/aAt53MwHwYDVR0jBBgwFoAUJSq1bViGotO4
atKxIDq0c6O/UycwDQYJKoZIhvcNAQELBQADggEBADJollx29alj1mYExvTbEuhp
8fTZtW+rycgfG+yGOg3CWNTrBjQ0zN+K3n6VNdBCIm340YJ1S1USQUTDboEVA74u
p37rUVpARNVWMRKS4YUDIJDTgi+DNIp4z9vvtSt1IFOTEC6VTSi4QZrb1znU5R/M
p0+goOLvU3lS9ZZ8CxiJB2HwrDe6ozdmJGambWEtp+47aoB/4KmyUc590IBKFQg5
1crHliPzBbGSohW1DtBzgi8BAIQ50iSYXF3oxrhL8VnOmO5K+0QJfpjvjc9R6N15
NgiRJc87pt8WMhDeWUykLFFoQbWMHixOSPrzg3YhlXuax7n+bl/h6Hc0fjkB4O8=
-----END CERTIFICATE-----
