Certificate:
    Data:
        Version: 3 (0x2)
        Serial Number:
            0d:0d:c8:e4:69:55:3a:f2:af:da:6e:b7:96:a4:3f:53:33:37:17:92
        Signature Algorithm: sha256WithRSAEncryption
        Issuer: C=JP, ST=Tokyo, O=ITC.CORP, OU=IT, CN=ConcertoInterCa200508
        Validity
            Not Before: May  8 05:02:26 2020 GMT
            Not After : May  3 05:02:26 2040 GMT
        Subject: C=JP, ST=Tokyo, O=ITC.CORP, OU=IT, CN=localhost
        Subject Public Key Info:
            Public Key Algorithm: rsaEncryption
                RSA Public-Key: (2048 bit)
                Modulus:
                    00:bf:0d:bf:bd:b6:a6:5c:11:68:9c:3d:3c:e5:b9:
                    04:d2:ab:7d:e2:26:39:ca:d8:b7:cb:b6:2d:f9:10:
                    aa:92:1c:78:cc:7d:c8:1e:83:54:df:ef:0d:0e:42:
                    5c:6e:fd:9a:b6:36:24:8f:42:c1:6a:5a:50:cf:22:
                    73:47:e3:b0:36:8b:10:61:83:a7:5b:99:98:a5:24:
                    cc:96:23:ce:bd:65:98:61:ce:94:7a:74:f7:99:2e:
                    d8:5b:e1:37:f8:d2:f5:2a:ba:d6:7c:14:ab:68:1b:
                    34:90:99:53:5b:1f:8e:ee:03:bc:2d:a9:5a:77:5d:
                    1c:ab:a8:22:ce:f3:d1:86:41:2a:92:17:59:31:9c:
                    74:41:3f:3c:77:31:dd:16:2b:7d:14:e7:3e:ff:c0:
                    da:74:52:b9:9f:0d:3c:aa:cd:89:3b:a9:d8:89:24:
                    0b:1c:a8:dc:b0:5c:d3:7e:4d:37:90:55:7e:bd:4d:
                    66:b8:b3:9f:a3:47:f4:65:bc:16:fc:98:3e:92:ce:
                    78:52:61:1c:2d:29:96:6f:04:0b:6b:14:68:36:32:
                    ae:ad:3b:48:64:aa:78:92:60:93:0d:55:ee:cd:0f:
                    d0:51:b1:41:41:cd:b6:7d:35:85:b2:eb:e5:9d:bc:
                    6c:9a:40:0f:2b:fa:51:f0:b6:c6:01:c1:fe:c5:59:
                    c3:31
                Exponent: 65537 (0x10001)
        X509v3 extensions:
            X509v3 Basic Constraints: 
                CA:FALSE
            X509v3 Key Usage: 
                Digital Signature, Key Encipherment
            X509v3 Extended Key Usage: 
                TLS Web Server Authentication
            X509v3 Subject Key Identifier: 
                BB:8F:89:12:85:FB:3A:38:D4:FF:3D:7A:68:73:1F:E8:F6:8F:46:DD
            X509v3 Authority Key Identifier: 
                keyid:12:CD:9A:85:E8:FB:D9:CB:A4:4E:00:FD:8F:34:72:C6:98:C9:3E:D7

    Signature Algorithm: sha256WithRSAEncryption
         7d:17:b6:76:5c:ca:35:73:eb:c3:93:45:af:01:13:32:15:e6:
         e4:cb:68:f3:d7:6e:79:08:bd:c9:56:ff:de:a1:e3:8a:cc:43:
         fd:11:ed:ae:c7:52:96:4d:92:bb:7f:a3:b5:4e:12:21:70:08:
         15:9d:e6:cc:7f:44:15:80:02:95:45:ff:b7:6e:c1:92:e8:f5:
         38:70:a2:7a:03:c4:35:32:d8:05:63:ef:2f:2d:76:15:f9:52:
         96:6b:12:0e:af:c8:ab:91:d7:29:b0:1f:54:46:a7:35:fe:9b:
         55:12:56:f1:20:0e:cc:59:24:52:60:5c:ed:2f:98:f0:e6:ff:
         59:12:f7:9a:30:71:b4:7a:04:76:81:c6:af:8e:d3:c0:5d:f7:
         4a:79:2c:4f:88:e9:4b:7a:98:77:2b:f2:03:aa:a0:04:d5:c9:
         14:33:f5:2c:38:e2:40:74:97:a1:21:22:13:45:de:72:ef:e5:
         31:59:be:7a:19:6b:3e:5e:31:85:8e:02:3b:6f:4e:33:bc:09:
         e9:54:d0:23:21:cb:5b:5d:f9:43:36:da:1c:8e:b3:ce:86:10:
         61:92:85:8a:c7:c5:74:09:12:fb:3f:84:4e:12:56:5d:4e:a0:
         cc:ae:7a:db:ed:53:5b:bb:0e:ac:b5:73:aa:4a:78:74:32:e5:
         49:58:05:47
-----BEGIN CERTIFICATE-----
MIIDqzCCApOgAwIBAgIUDQ3I5GlVOvKv2m63lqQ/UzM3F5IwDQYJKoZIhvcNAQEL
BQAwXTELMAkGA1UEBhMCSlAxDjAMBgNVBAgMBVRva3lvMREwDwYDVQQKDAhJVEMu
Q09SUDELMAkGA1UECwwCSVQxHjAcBgNVBAMMFUNvbmNlcnRvSW50ZXJDYTIwMDUw
ODAeFw0yMDA1MDgwNTAyMjZaFw00MDA1MDMwNTAyMjZaMFExCzAJBgNVBAYTAkpQ
MQ4wDAYDVQQIDAVUb2t5bzERMA8GA1UECgwISVRDLkNPUlAxCzAJBgNVBAsMAklU
MRIwEAYDVQQDDAlsb2NhbGhvc3QwggEiMA0GCSqGSIb3DQEBAQUAA4IBDwAwggEK
AoIBAQC/Db+9tqZcEWicPTzluQTSq33iJjnK2LfLti35EKqSHHjMfcgeg1Tf7w0O
Qlxu/Zq2NiSPQsFqWlDPInNH47A2ixBhg6dbmZilJMyWI869ZZhhzpR6dPeZLthb
4Tf40vUqutZ8FKtoGzSQmVNbH47uA7wtqVp3XRyrqCLO89GGQSqSF1kxnHRBPzx3
Md0WK30U5z7/wNp0UrmfDTyqzYk7qdiJJAscqNywXNN+TTeQVX69TWa4s5+jR/Rl
vBb8mD6SznhSYRwtKZZvBAtrFGg2Mq6tO0hkqniSYJMNVe7ND9BRsUFBzbZ9NYWy
6+WdvGyaQA8r+lHwtsYBwf7FWcMxAgMBAAGjbzBtMAkGA1UdEwQCMAAwCwYDVR0P
BAQDAgWgMBMGA1UdJQQMMAoGCCsGAQUFBwMBMB0GA1UdDgQWBBS7j4kShfs6ONT/
PXpocx/o9o9G3TAfBgNVHSMEGDAWgBQSzZqF6PvZy6ROAP2PNHLGmMk+1zANBgkq
hkiG9w0BAQsFAAOCAQEAfRe2dlzKNXPrw5NFrwETMhXm5Mto89dueQi9yVb/3qHj
isxD/RHtrsdSlk2Su3+jtU4SIXAIFZ3mzH9EFYAClUX/t27Bkuj1OHCiegPENTLY
BWPvLy12FflSlmsSDq/Iq5HXKbAfVEanNf6bVRJW8SAOzFkkUmBc7S+Y8Ob/WRL3
mjBxtHoEdoHGr47TwF33SnksT4jpS3qYdyvyA6qgBNXJFDP1LDjiQHSXoSEiE0Xe
cu/lMVm+ehlrPl4xhY4CO29OM7wJ6VTQIyHLW135QzbaHI6zzoYQYZKFisfFdAkS
+z+EThJWXU6gzK562+1TW7sOrLVzqkp4dDLlSVgFRw==
-----END CERTIFICATE-----
