Certificate:
    Data:
        Version: 3 (0x2)
        Serial Number:
            16:27:c0:cc:c1:4d:69:0f:e3:a6:6f:3c:d1:6b:31:d5:88:b8:3c:ca
        Signature Algorithm: sha256WithRSAEncryption
        Issuer: C=JP, ST=Tokyo, O=ITC.CORP, OU=IT, CN=ConcertoInterCa200508
        Validity
            Not Before: May  7 23:03:48 2020 GMT
            Not After : May  5 23:03:48 2030 GMT
        Subject: C=JP, ST=Tokyo, O=ITC.CORP, OU=IT, CN=itcp1913571.toshiba.local
        Subject Public Key Info:
            Public Key Algorithm: rsaEncryption
                RSA Public-Key: (2048 bit)
                Modulus:
                    00:c1:5a:98:6d:ae:31:f0:60:71:12:d1:a0:e7:ea:
                    95:40:cf:ef:78:67:c1:88:87:ce:73:4c:b0:bf:57:
                    89:43:cc:fc:6a:03:f0:07:3a:ca:48:18:95:52:8d:
                    65:b0:d5:f8:81:6c:d2:a2:ca:8d:5f:ba:d4:5e:04:
                    17:0d:5b:56:9b:cf:45:58:55:6c:14:04:2a:19:6c:
                    10:6f:45:e2:62:14:d5:b4:9b:33:4a:b5:a0:60:ef:
                    04:87:8e:1b:c3:27:aa:47:f7:80:ab:72:48:86:ee:
                    24:25:64:21:dd:77:e3:e4:8c:e4:1c:eb:c3:b6:27:
                    fc:4d:46:a5:bd:e6:31:84:ef:1a:b3:d7:e8:9c:84:
                    71:c8:c0:89:c2:74:9c:34:d3:60:61:9e:6e:29:5b:
                    f2:78:41:c4:03:86:00:79:fb:9d:dd:91:e6:f7:6f:
                    e9:ad:fe:39:4f:0e:0f:0f:de:73:46:c7:3b:73:af:
                    c6:56:70:3a:5f:e9:63:85:34:82:5d:f3:47:48:a5:
                    62:89:ee:67:46:2d:bd:9e:b0:8e:27:63:a6:6a:5b:
                    5f:cc:7c:be:e4:c6:fb:84:59:77:ac:7d:af:05:aa:
                    7a:7f:8a:cc:b2:22:cd:4c:11:3f:d9:00:66:2c:28:
                    e2:21:76:cb:bf:83:25:1f:06:39:70:44:bb:36:18:
                    98:b3
                Exponent: 65537 (0x10001)
        X509v3 extensions:
            X509v3 Basic Constraints: 
                CA:FALSE
            X509v3 Key Usage: 
                Digital Signature, Key Encipherment
            X509v3 Extended Key Usage: 
                TLS Web Server Authentication
            X509v3 Subject Key Identifier: 
                E2:E5:06:A7:67:85:F9:07:D0:8A:50:4A:46:9C:10:FD:A0:2D:E7:73
            X509v3 Authority Key Identifier: 
                keyid:25:2A:B5:6D:58:86:A2:D3:B8:6A:D2:B1:20:3A:B4:73:A3:BF:53:27

    Signature Algorithm: sha256WithRSAEncryption
         32:68:96:5c:76:f5:a9:63:d6:66:04:c6:f4:db:12:e8:69:f1:
         f4:d9:b5:6f:ab:c9:c8:1f:1b:ec:86:3a:0d:c2:58:d4:eb:06:
         34:34:cc:df:8a:de:7e:95:35:d0:42:22:6d:f8:d1:82:75:4b:
         55:12:41:44:c3:6e:81:15:03:be:2e:a7:7e:eb:51:5a:40:44:
         d5:56:31:12:92:e1:85:03:20:90:d3:82:2f:83:34:8a:78:cf:
         db:ef:b5:2b:75:20:53:93:10:2e:95:4d:28:b8:41:9a:db:d7:
         39:d4:e5:1f:cc:a7:4f:a0:a0:e2:ef:53:79:52:f5:96:7c:0b:
         18:89:07:61:f0:ac:37:ba:a3:37:66:24:66:a6:6d:61:2d:a7:
         ee:3b:6a:80:7f:e0:a9:b2:51:ce:7d:d0:80:4a:15:08:39:d5:
         ca:c7:96:23:f3:05:b1:92:a2:15:b5:0e:d0:73:82:2f:01:00:
         84:39:d2:24:98:5c:5d:e8:c6:b8:4b:f1:59:ce:98:ee:4a:fb:
         44:09:7e:98:ef:8d:cf:51:e8:dd:79:36:08:91:25:cf:3b:a6:
         df:16:32:10:de:59:4c:a4:2c:51:68:41:b5:8c:1e:2c:4e:48:
         fa:f3:83:76:21:95:7b:9a:c7:b9:fe:6e:5f:e1:e8:77:34:7e:
         39:01:e0:ef
-----BEGIN CERTIFICATE-----
MIIDuzCCAqOgAwIBAgIUFifAzMFNaQ/jpm880Wsx1Yi4PMowDQYJKoZIhvcNAQEL
BQAwXTELMAkGA1UEBhMCSlAxDjAMBgNVBAgMBVRva3lvMREwDwYDVQQKDAhJVEMu
Q09SUDELMAkGA1UECwwCSVQxHjAcBgNVBAMMFUNvbmNlcnRvSW50ZXJDYTIwMDUw
ODAeFw0yMDA1MDcyMzAzNDhaFw0zMDA1MDUyMzAzNDhaMGExCzAJBgNVBAYTAkpQ
MQ4wDAYDVQQIDAVUb2t5bzERMA8GA1UECgwISVRDLkNPUlAxCzAJBgNVBAsMAklU
MSIwIAYDVQQDDBlpdGNwMTkxMzU3MS50b3NoaWJhLmxvY2FsMIIBIjANBgkqhkiG
9w0BAQEFAAOCAQ8AMIIBCgKCAQEAwVqYba4x8GBxEtGg5+qVQM/veGfBiIfOc0yw
v1eJQ8z8agPwBzrKSBiVUo1lsNX4gWzSosqNX7rUXgQXDVtWm89FWFVsFAQqGWwQ
b0XiYhTVtJszSrWgYO8Eh44bwyeqR/eAq3JIhu4kJWQh3Xfj5IzkHOvDtif8TUal
veYxhO8as9fonIRxyMCJwnScNNNgYZ5uKVvyeEHEA4YAefud3ZHm92/prf45Tw4P
D95zRsc7c6/GVnA6X+ljhTSCXfNHSKViie5nRi29nrCOJ2OmaltfzHy+5Mb7hFl3
rH2vBap6f4rMsiLNTBE/2QBmLCjiIXbLv4MlHwY5cES7NhiYswIDAQABo28wbTAJ
BgNVHRMEAjAAMAsGA1UdDwQEAwIFoDATBgNVHSUEDDAKBggrBgEFBQcDATAdBgNV
HQ4EFgQU4uUGp2eF+QfQilBKRpwQ/aAt53MwHwYDVR0jBBgwFoAUJSq1bViGotO4
atKxIDq0c6O/UycwDQYJKoZIhvcNAQELBQADggEBADJollx29alj1mYExvTbEuhp
8fTZtW+rycgfG+yGOg3CWNTrBjQ0zN+K3n6VNdBCIm340YJ1S1USQUTDboEVA74u
p37rUVpARNVWMRKS4YUDIJDTgi+DNIp4z9vvtSt1IFOTEC6VTSi4QZrb1znU5R/M
p0+goOLvU3lS9ZZ8CxiJB2HwrDe6ozdmJGambWEtp+47aoB/4KmyUc590IBKFQg5
1crHliPzBbGSohW1DtBzgi8BAIQ50iSYXF3oxrhL8VnOmO5K+0QJfpjvjc9R6N15
NgiRJc87pt8WMhDeWUykLFFoQbWMHixOSPrzg3YhlXuax7n+bl/h6Hc0fjkB4O8=
-----END CERTIFICATE-----
