Certificate:
    Data:
        Version: 3 (0x2)
        Serial Number:
            30:5d:57:1a:00:d3:58:a0:21:70:29:3e:a8:3b:f8:d4:c0:a8:4a:f3
        Signature Algorithm: sha256WithRSAEncryption
        Issuer: C=JP, ST=Tokyo, O=MyCorp.LTD, OU=IT, CN=MyInterCa200419
        Validity
            Not Before: Apr 19 05:27:33 2020 GMT
            Not After : Apr 19 05:27:33 2021 GMT
        Subject: C=JP, ST=Tokyo, O=MyCorp.LTD, OU=IT, CN=MyServer200419
        Subject Public Key Info:
            Public Key Algorithm: rsaEncryption
                RSA Public-Key: (2048 bit)
                Modulus:
                    00:f5:a6:e6:44:80:be:61:e2:61:a5:a4:6c:40:d4:
                    bc:68:ef:3b:65:9a:87:a5:8b:ab:0c:14:89:94:35:
                    8a:02:91:00:9c:35:b5:0b:a4:d3:08:a1:db:d9:7c:
                    46:e5:8d:a7:a9:3d:4e:b7:e1:c2:9d:cb:1b:ed:76:
                    2e:eb:31:ba:cf:ef:69:c2:b4:a7:01:d6:bd:3e:f0:
                    57:0f:81:a9:86:fc:e1:4c:c3:c5:d8:66:17:30:2b:
                    7e:5e:8d:f9:4f:b3:1f:4c:ba:7c:d5:77:fd:56:ff:
                    76:8d:4d:18:01:52:af:07:99:01:46:10:4e:4d:f7:
                    d5:29:b0:cd:91:01:42:5e:bd:ba:05:17:e2:99:43:
                    c5:38:ff:9c:66:51:ef:e5:84:4a:6b:14:78:d1:89:
                    08:b1:04:7d:39:83:55:3e:eb:93:1f:fd:63:69:da:
                    2a:04:d7:76:68:68:20:54:d1:f1:05:eb:9d:32:11:
                    11:f6:ed:8b:f4:6f:e3:bb:a0:ca:38:21:42:e6:ed:
                    03:b9:17:91:ec:82:98:d8:8f:d1:b3:31:c5:01:07:
                    02:d2:e0:d4:85:96:59:3f:41:86:f9:c1:b3:9d:68:
                    ab:62:35:79:8e:40:98:2d:c4:b4:77:b3:4b:d2:18:
                    63:fc:ef:2f:78:be:e9:40:3c:1f:8d:53:1f:56:62:
                    e2:bb
                Exponent: 65537 (0x10001)
        X509v3 extensions:
            X509v3 Basic Constraints: 
                CA:FALSE
            X509v3 Key Usage: 
                Digital Signature, Key Encipherment
            X509v3 Extended Key Usage: 
                TLS Web Server Authentication
            X509v3 Subject Key Identifier: 
                5A:F2:55:6E:77:1C:F5:EA:28:4F:80:3E:7F:C7:96:B3:02:FA:C9:F7
            X509v3 Authority Key Identifier: 
                keyid:C5:5A:B7:A2:77:37:38:DD:36:92:4C:30:88:3F:4B:E7:45:A1:57:FF

    Signature Algorithm: sha256WithRSAEncryption
         0f:7e:55:58:3a:c8:d4:90:c3:3f:ec:50:f2:c9:08:b9:3c:de:
         72:ed:99:65:48:3b:07:99:f3:47:b7:f3:4b:d8:81:94:04:e1:
         36:a4:2a:61:31:d0:9d:9c:49:2e:bb:56:70:81:40:40:9b:ef:
         1a:20:2c:ad:44:2c:1b:70:49:61:d6:f6:09:0f:03:6d:d9:1d:
         d5:f0:5f:26:50:0a:2b:34:dc:c9:5c:1e:ac:89:53:2d:4a:4c:
         06:d1:a5:89:ee:53:e8:15:36:f1:7c:99:0e:12:95:f5:b2:41:
         cb:c6:75:fc:18:52:f6:33:e9:8d:14:61:5f:8c:a5:80:0a:5b:
         f9:9e:68:76:26:dc:5c:4c:32:26:51:19:82:67:9c:bf:f9:a1:
         5d:a7:53:e1:1d:14:db:35:f1:25:d2:7d:78:31:c9:49:bc:32:
         ea:a3:33:df:33:ef:44:6b:da:c0:c1:dc:62:9f:bb:6d:77:9f:
         eb:99:bf:43:ec:62:5c:77:48:f3:0c:e3:e0:90:91:4c:29:38:
         da:65:47:60:47:24:90:99:4c:c4:5e:a1:5f:2e:1a:af:1f:e5:
         05:bd:0e:a1:0a:ed:09:de:b9:ea:cc:d4:2b:72:f9:02:05:44:
         b1:c7:cd:3d:2c:3f:b4:85:7a:b7:7b:71:ac:d7:65:98:73:a6:
         e5:02:24:61
-----BEGIN CERTIFICATE-----
MIIDrjCCApagAwIBAgIUMF1XGgDTWKAhcCk+qDv41MCoSvMwDQYJKoZIhvcNAQEL
BQAwWTELMAkGA1UEBhMCSlAxDjAMBgNVBAgMBVRva3lvMRMwEQYDVQQKDApNeUNv
cnAuTFREMQswCQYDVQQLDAJJVDEYMBYGA1UEAwwPTXlJbnRlckNhMjAwNDE5MB4X
DTIwMDQxOTA1MjczM1oXDTIxMDQxOTA1MjczM1owWDELMAkGA1UEBhMCSlAxDjAM
BgNVBAgMBVRva3lvMRMwEQYDVQQKDApNeUNvcnAuTFREMQswCQYDVQQLDAJJVDEX
MBUGA1UEAwwOTXlTZXJ2ZXIyMDA0MTkwggEiMA0GCSqGSIb3DQEBAQUAA4IBDwAw
ggEKAoIBAQD1puZEgL5h4mGlpGxA1Lxo7ztlmoeli6sMFImUNYoCkQCcNbULpNMI
odvZfEbljaepPU634cKdyxvtdi7rMbrP72nCtKcB1r0+8FcPgamG/OFMw8XYZhcw
K35ejflPsx9MunzVd/1W/3aNTRgBUq8HmQFGEE5N99UpsM2RAUJevboFF+KZQ8U4
/5xmUe/lhEprFHjRiQixBH05g1U+65Mf/WNp2ioE13ZoaCBU0fEF650yERH27Yv0
b+O7oMo4IULm7QO5F5HsgpjYj9GzMcUBBwLS4NSFllk/QYb5wbOdaKtiNXmOQJgt
xLR3s0vSGGP87y94vulAPB+NUx9WYuK7AgMBAAGjbzBtMAkGA1UdEwQCMAAwCwYD
VR0PBAQDAgWgMBMGA1UdJQQMMAoGCCsGAQUFBwMBMB0GA1UdDgQWBBRa8lVudxz1
6ihPgD5/x5azAvrJ9zAfBgNVHSMEGDAWgBTFWreidzc43TaSTDCIP0vnRaFX/zAN
BgkqhkiG9w0BAQsFAAOCAQEAD35VWDrI1JDDP+xQ8skIuTzecu2ZZUg7B5nzR7fz
S9iBlAThNqQqYTHQnZxJLrtWcIFAQJvvGiAsrUQsG3BJYdb2CQ8Dbdkd1fBfJlAK
KzTcyVwerIlTLUpMBtGlie5T6BU28XyZDhKV9bJBy8Z1/BhS9jPpjRRhX4ylgApb
+Z5odibcXEwyJlEZgmecv/mhXadT4R0U2zXxJdJ9eDHJSbwy6qMz3zPvRGvawMHc
Yp+7bXef65m/Q+xiXHdI8wzj4JCRTCk42mVHYEckkJlMxF6hXy4arx/lBb0OoQrt
Cd656szUK3L5AgVEscfNPSw/tIV6t3txrNdlmHOm5QIkYQ==
-----END CERTIFICATE-----
