Certificate:
    Data:
        Version: 3 (0x2)
        Serial Number:
            42:50:f3:33:36:87:2d:18:88:39:b2:e3:4d:12:2d:25:81:ce:fb:17
        Signature Algorithm: sha256WithRSAEncryption
        Issuer: C=JP, ST=Tokyo, O=ITC.CORP, OU=IT, CN=ConcertoInterCa200507
        Validity
            Not Before: May 12 23:49:46 2020 GMT
            Not After : May 13 23:49:46 2020 GMT
        Subject: C=JP, ST=Tokyo, O=ITC.CORP, OU=IT, CN=ConcertoClient200513A
        Subject Public Key Info:
            Public Key Algorithm: rsaEncryption
                RSA Public-Key: (2048 bit)
                Modulus:
                    00:b2:a7:f3:51:87:34:63:18:cc:06:a0:3b:10:45:
                    89:ba:66:cf:da:32:51:9e:b5:08:c2:3e:70:9a:5c:
                    56:81:7e:fe:15:8c:73:a6:0d:64:57:b9:79:62:a4:
                    11:a1:33:9e:a4:16:2a:b0:32:e1:01:77:6d:27:1a:
                    a0:18:39:2b:18:23:a7:8b:1c:8f:c1:b1:65:f1:4a:
                    2d:78:46:f8:42:49:f1:5e:94:8f:50:33:21:61:93:
                    dd:08:b1:a7:cd:fd:af:dd:27:1e:44:6e:b4:88:4d:
                    0a:2a:94:14:7f:25:80:1f:16:b3:1f:e2:21:e6:3a:
                    a1:f7:28:4a:95:b3:ac:5c:f0:17:dc:03:11:90:86:
                    67:ce:9e:18:cd:31:31:04:3f:18:6b:14:c1:a5:27:
                    d2:f8:33:e8:8d:85:62:6f:37:2b:53:0b:1c:b1:90:
                    6b:5f:de:6c:3b:b0:35:9c:fd:d9:8d:66:21:51:e7:
                    f4:49:a3:c1:c8:58:6c:c2:d9:db:12:c1:a2:2f:a2:
                    14:3e:55:2c:e3:14:0c:0b:10:f5:3c:ac:ae:c7:69:
                    97:de:e7:c4:03:c2:b0:c6:2c:4a:e2:ff:02:40:25:
                    87:da:d6:e9:67:3a:73:ef:6a:d4:fd:2d:4f:b1:af:
                    85:18:46:59:f8:11:2a:e2:2f:9b:f1:3b:bb:0b:cd:
                    6f:d7
                Exponent: 65537 (0x10001)
        X509v3 extensions:
            X509v3 Basic Constraints: 
                CA:FALSE
            X509v3 Key Usage: 
                Digital Signature, Key Encipherment
            X509v3 Extended Key Usage: 
                TLS Web Client Authentication
            X509v3 Subject Key Identifier: 
                79:5A:35:D4:F5:47:1F:AD:35:4E:A1:78:40:9B:E6:B9:4E:75:5B:BF
            X509v3 Authority Key Identifier: 
                keyid:6E:8E:30:E6:3B:F4:45:42:38:37:1C:F0:16:DC:D4:54:0E:E4:DB:B8

    Signature Algorithm: sha256WithRSAEncryption
         a4:02:d2:78:95:1f:5d:93:a0:bd:c1:94:77:c7:0d:de:39:54:
         6d:24:17:22:51:7f:24:4f:01:da:09:5b:93:44:fe:9a:12:d9:
         b9:4b:71:67:6e:5a:be:a3:3f:c4:dd:f5:c6:59:53:35:f5:f5:
         8d:74:1a:59:72:a5:b5:22:5b:04:be:8f:ef:49:e8:9a:26:1d:
         0a:12:34:98:7c:ff:43:a8:85:24:70:cc:f7:91:ed:28:65:93:
         e8:4c:9f:8a:82:fe:66:9a:a5:d9:68:18:02:32:85:44:d5:30:
         b5:0a:7c:2f:d3:54:9d:bd:2c:f3:e7:3b:fb:29:3e:3d:a1:bd:
         a4:0a:a2:1d:87:6a:47:f9:f6:16:0e:4c:74:05:11:e5:28:d4:
         53:d2:65:4b:d3:6a:f8:00:8f:f5:25:a2:c5:06:3d:ae:f6:de:
         18:78:55:03:61:36:31:8d:e6:91:2b:dd:74:ef:5b:30:8d:96:
         d1:cb:8a:da:0e:65:c1:3a:c8:c0:77:f2:72:e6:a8:ea:05:9c:
         84:c2:86:e7:20:ec:93:9b:3a:fb:12:35:b9:32:69:8e:a1:d6:
         1e:42:e8:89:d6:c5:f1:68:08:4d:0b:ac:37:12:e8:e8:a6:c1:
         da:e0:1e:5f:6b:db:03:28:8f:96:10:06:d9:b4:a9:a9:91:86:
         6d:8f:66:93
-----BEGIN CERTIFICATE-----
MIIDtzCCAp+gAwIBAgIUQlDzMzaHLRiIObLjTRItJYHO+xcwDQYJKoZIhvcNAQEL
BQAwXTELMAkGA1UEBhMCSlAxDjAMBgNVBAgMBVRva3lvMREwDwYDVQQKDAhJVEMu
Q09SUDELMAkGA1UECwwCSVQxHjAcBgNVBAMMFUNvbmNlcnRvSW50ZXJDYTIwMDUw
NzAeFw0yMDA1MTIyMzQ5NDZaFw0yMDA1MTMyMzQ5NDZaMF0xCzAJBgNVBAYTAkpQ
MQ4wDAYDVQQIDAVUb2t5bzERMA8GA1UECgwISVRDLkNPUlAxCzAJBgNVBAsMAklU
MR4wHAYDVQQDDBVDb25jZXJ0b0NsaWVudDIwMDUxM0EwggEiMA0GCSqGSIb3DQEB
AQUAA4IBDwAwggEKAoIBAQCyp/NRhzRjGMwGoDsQRYm6Zs/aMlGetQjCPnCaXFaB
fv4VjHOmDWRXuXlipBGhM56kFiqwMuEBd20nGqAYOSsYI6eLHI/BsWXxSi14RvhC
SfFelI9QMyFhk90IsafN/a/dJx5EbrSITQoqlBR/JYAfFrMf4iHmOqH3KEqVs6xc
8BfcAxGQhmfOnhjNMTEEPxhrFMGlJ9L4M+iNhWJvNytTCxyxkGtf3mw7sDWc/dmN
ZiFR5/RJo8HIWGzC2dsSwaIvohQ+VSzjFAwLEPU8rK7HaZfe58QDwrDGLEri/wJA
JYfa1ulnOnPvatT9LU+xr4UYRln4ESriL5vxO7sLzW/XAgMBAAGjbzBtMAkGA1Ud
EwQCMAAwCwYDVR0PBAQDAgWgMBMGA1UdJQQMMAoGCCsGAQUFBwMCMB0GA1UdDgQW
BBR5WjXU9UcfrTVOoXhAm+a5TnVbvzAfBgNVHSMEGDAWgBRujjDmO/RFQjg3HPAW
3NRUDuTbuDANBgkqhkiG9w0BAQsFAAOCAQEApALSeJUfXZOgvcGUd8cN3jlUbSQX
IlF/JE8B2glbk0T+mhLZuUtxZ25avqM/xN31xllTNfX1jXQaWXKltSJbBL6P70no
miYdChI0mHz/Q6iFJHDM95HtKGWT6EyfioL+Zpql2WgYAjKFRNUwtQp8L9NUnb0s
8+c7+yk+PaG9pAqiHYdqR/n2Fg5MdAUR5SjUU9JlS9Nq+ACP9SWixQY9rvbeGHhV
A2E2MY3mkSvddO9bMI2W0cuK2g5lwTrIwHfycuao6gWchMKG5yDsk5s6+xI1uTJp
jqHWHkLoidbF8WgITQusNxLo6KbB2uAeX2vbAyiPlhAG2bSpqZGGbY9mkw==
-----END CERTIFICATE-----
