Certificate:
    Data:
        Version: 3 (0x2)
        Serial Number:
            4a:c2:13:76:c7:aa:41:89:22:09:9c:53:eb:0a:05:fb:c5:32:57:0f
        Signature Algorithm: sha256WithRSAEncryption
        Issuer: C=JP, ST=Tokyo, O=MyCorp.LTD, OU=IT, CN=MyInterCa200419
        Validity
            Not Before: Apr 19 04:04:54 2020 GMT
            Not After : Apr 19 04:04:54 2021 GMT
        Subject: C=JP, ST=Tokyo, O=MyCorp.LTD, OU=IT, CN=MyServer200419
        Subject Public Key Info:
            Public Key Algorithm: rsaEncryption
                RSA Public-Key: (2048 bit)
                Modulus:
                    00:c8:46:82:9e:f8:fd:f5:5a:8b:5c:b4:ee:e2:12:
                    97:8e:62:0f:d6:77:21:a4:b3:ec:a9:9f:54:7c:4a:
                    ab:12:c2:76:b2:83:89:e9:3a:31:1a:76:d6:2a:be:
                    7f:87:f3:36:1d:6c:2c:bb:5e:f7:d8:2d:19:5d:32:
                    d4:9e:f1:ff:b6:32:e3:d6:52:39:b8:70:7d:d6:6c:
                    06:7e:6c:48:d5:f2:aa:4a:50:4e:ea:aa:17:a6:ab:
                    a4:62:06:99:54:48:96:77:53:24:ac:1d:0a:82:04:
                    9c:7b:d9:6a:12:ff:96:51:4f:2e:9c:5e:06:67:63:
                    7c:bc:10:4c:04:8f:04:57:3b:40:86:69:5f:70:42:
                    97:4a:31:44:8e:25:23:0f:0e:79:5b:04:d4:d0:f2:
                    dd:f4:4e:bf:c0:ec:0b:a5:89:af:9d:13:80:96:20:
                    e9:15:ac:6f:ee:cb:1a:fe:0d:8a:fa:42:84:d5:20:
                    f9:61:45:77:f8:0c:b0:07:97:55:2a:60:83:20:87:
                    fe:eb:dc:0e:c5:e5:d6:4b:50:fd:50:96:e0:41:3b:
                    81:6b:bd:27:d0:53:4c:8d:c0:e5:e7:d3:84:01:6e:
                    dd:e4:2a:81:6f:a2:d9:e2:c9:5f:05:4a:71:d9:7c:
                    c6:f8:26:03:ec:0f:be:41:e1:3c:37:3a:57:76:31:
                    58:13
                Exponent: 65537 (0x10001)
        X509v3 extensions:
            X509v3 Basic Constraints: 
                CA:FALSE
            X509v3 Key Usage: 
                Digital Signature, Key Encipherment
            X509v3 Extended Key Usage: 
                TLS Web Server Authentication
            X509v3 Subject Key Identifier: 
                E6:50:A1:43:D6:0B:62:9E:E7:FC:34:44:D0:01:36:4C:75:30:28:C7
            X509v3 Authority Key Identifier: 
                keyid:C5:5A:B7:A2:77:37:38:DD:36:92:4C:30:88:3F:4B:E7:45:A1:57:FF

    Signature Algorithm: sha256WithRSAEncryption
         8b:96:57:c5:7d:2e:89:ca:1b:00:33:55:70:cd:43:07:93:16:
         89:0b:16:d8:fd:dd:6d:a9:59:37:be:9a:c7:34:79:e5:48:48:
         77:0e:57:f6:e5:7a:4b:6d:ab:57:cf:96:5d:e7:d7:0b:d9:54:
         20:d8:71:15:f4:f4:7e:73:b2:a3:a3:15:4f:d6:79:2a:fb:de:
         d8:42:0a:a1:dc:c6:28:95:1a:ca:0a:e8:0c:87:c9:ab:08:dd:
         34:4a:a4:75:ab:28:54:d2:84:89:16:22:f7:64:d7:c5:63:c7:
         9b:b1:89:04:11:0d:a5:84:09:80:53:61:7c:8d:ae:bc:8e:0a:
         b8:ba:42:0c:53:19:a2:2a:94:48:3e:3c:0f:b5:16:6c:d2:af:
         77:e5:a8:1c:1f:5a:f2:bf:de:3a:3d:ae:82:e2:1a:3d:df:3c:
         a4:ca:8a:fb:11:60:74:8c:01:02:8b:94:cc:37:ed:e7:ec:6d:
         fe:2d:fe:5e:09:49:64:13:2d:ae:4f:3a:9b:3a:13:cd:fb:90:
         33:47:ef:d8:e3:e6:8f:c3:10:f9:eb:05:5c:1a:3e:18:0c:38:
         c9:70:a0:ae:9e:76:63:a5:b6:36:fd:9a:b5:ba:42:f0:70:79:
         34:6d:7d:0a:3c:4b:cf:41:6b:1b:3d:b7:b9:8d:b1:56:ef:7f:
         d0:f5:94:6e
-----BEGIN CERTIFICATE-----
MIIDrjCCApagAwIBAgIUSsITdseqQYkiCZxT6woF+8UyVw8wDQYJKoZIhvcNAQEL
BQAwWTELMAkGA1UEBhMCSlAxDjAMBgNVBAgMBVRva3lvMRMwEQYDVQQKDApNeUNv
cnAuTFREMQswCQYDVQQLDAJJVDEYMBYGA1UEAwwPTXlJbnRlckNhMjAwNDE5MB4X
DTIwMDQxOTA0MDQ1NFoXDTIxMDQxOTA0MDQ1NFowWDELMAkGA1UEBhMCSlAxDjAM
BgNVBAgMBVRva3lvMRMwEQYDVQQKDApNeUNvcnAuTFREMQswCQYDVQQLDAJJVDEX
MBUGA1UEAwwOTXlTZXJ2ZXIyMDA0MTkwggEiMA0GCSqGSIb3DQEBAQUAA4IBDwAw
ggEKAoIBAQDIRoKe+P31WotctO7iEpeOYg/WdyGks+ypn1R8SqsSwnayg4npOjEa
dtYqvn+H8zYdbCy7XvfYLRldMtSe8f+2MuPWUjm4cH3WbAZ+bEjV8qpKUE7qqhem
q6RiBplUSJZ3UySsHQqCBJx72WoS/5ZRTy6cXgZnY3y8EEwEjwRXO0CGaV9wQpdK
MUSOJSMPDnlbBNTQ8t30Tr/A7Aulia+dE4CWIOkVrG/uyxr+DYr6QoTVIPlhRXf4
DLAHl1UqYIMgh/7r3A7F5dZLUP1QluBBO4FrvSfQU0yNwOXn04QBbt3kKoFvotni
yV8FSnHZfMb4JgPsD75B4Tw3Old2MVgTAgMBAAGjbzBtMAkGA1UdEwQCMAAwCwYD
VR0PBAQDAgWgMBMGA1UdJQQMMAoGCCsGAQUFBwMBMB0GA1UdDgQWBBTmUKFD1gti
nuf8NETQATZMdTAoxzAfBgNVHSMEGDAWgBTFWreidzc43TaSTDCIP0vnRaFX/zAN
BgkqhkiG9w0BAQsFAAOCAQEAi5ZXxX0uicobADNVcM1DB5MWiQsW2P3dbalZN76a
xzR55UhIdw5X9uV6S22rV8+WXefXC9lUINhxFfT0fnOyo6MVT9Z5Kvve2EIKodzG
KJUaygroDIfJqwjdNEqkdasoVNKEiRYi92TXxWPHm7GJBBENpYQJgFNhfI2uvI4K
uLpCDFMZoiqUSD48D7UWbNKvd+WoHB9a8r/eOj2uguIaPd88pMqK+xFgdIwBAouU
zDft5+xt/i3+XglJZBMtrk86mzoTzfuQM0fv2OPmj8MQ+esFXBo+GAw4yXCgrp52
Y6W2Nv2atbpC8HB5NG19CjxLz0FrGz23uY2xVu9/0PWUbg==
-----END CERTIFICATE-----
