Certificate:
    Data:
        Version: 3 (0x2)
        Serial Number:
            6c:a9:d5:72:d2:d6:3d:16:2e:60:8f:ee:71:fd:61:bd:a4:78:80:b5
        Signature Algorithm: sha256WithRSAEncryption
        Issuer: C=JP, ST=Tokyo, O=MyCorp.LTD, OU=IT, CN=MyInterCa200419
        Validity
            Not Before: Apr 20 00:36:32 2020 GMT
            Not After : Apr 20 00:36:32 2021 GMT
        Subject: C=JP, ST=Tokyo, O=MyCorp.LTD, OU=IT, CN=MyClient200420
        Subject Public Key Info:
            Public Key Algorithm: rsaEncryption
                RSA Public-Key: (2048 bit)
                Modulus:
                    00:d6:85:02:28:e5:11:c4:26:ce:50:49:f0:f6:60:
                    9c:4d:85:62:55:04:0b:69:69:dc:3d:78:9e:af:8e:
                    e4:52:13:ee:ac:1d:df:a1:06:c9:74:20:14:63:b9:
                    f4:d5:47:9f:23:69:90:44:e1:9e:6d:9f:07:4d:80:
                    4e:e2:07:5c:79:8e:b7:0a:e7:62:52:eb:82:2e:bb:
                    34:95:e1:f3:0c:63:96:35:a8:29:b0:d1:8a:b1:6c:
                    14:39:ed:15:13:3f:6d:1d:de:ce:4e:1c:7b:ee:9f:
                    f2:8b:29:0f:e6:d6:5d:fe:86:1b:fa:63:b3:84:1d:
                    38:ae:c1:bf:98:3b:3a:10:4e:62:06:38:45:0b:c7:
                    68:9b:42:74:f5:0d:b6:d6:13:91:2c:3a:1b:39:46:
                    75:e4:6e:66:33:24:9a:9e:48:7f:8e:9b:fc:7e:d5:
                    53:d5:e1:b2:2d:32:d4:76:f1:08:01:2d:a9:28:31:
                    31:3c:4c:a5:c8:69:80:ad:54:3e:4a:e0:f9:3f:b1:
                    7d:19:77:1a:3b:28:ac:5d:11:66:af:7c:db:4f:74:
                    7e:4f:70:57:f7:7e:23:71:9c:e1:9d:6c:31:5a:2c:
                    33:e2:49:ca:62:7f:6b:35:ff:d6:7c:bb:75:02:cf:
                    b8:0b:2f:30:65:56:99:17:60:84:8f:d9:c6:48:40:
                    fe:09
                Exponent: 65537 (0x10001)
        X509v3 extensions:
            X509v3 Basic Constraints: 
                CA:FALSE
            X509v3 Key Usage: 
                Digital Signature, Key Encipherment
            X509v3 Extended Key Usage: 
                TLS Web Client Authentication
            X509v3 Subject Key Identifier: 
                B5:C4:0C:53:5D:1B:09:07:83:FE:B7:95:D9:B6:6E:E6:4B:0B:49:51
            X509v3 Authority Key Identifier: 
                keyid:C5:5A:B7:A2:77:37:38:DD:36:92:4C:30:88:3F:4B:E7:45:A1:57:FF

    Signature Algorithm: sha256WithRSAEncryption
         35:35:ee:41:9a:c9:73:73:71:9b:41:84:4e:51:1b:fa:75:6a:
         68:33:fa:d0:68:b7:49:91:f6:a3:fa:e8:c1:72:34:0c:15:21:
         ab:23:a5:ab:e0:a5:1b:21:cf:d4:d7:43:16:5b:4c:c4:c4:ce:
         c4:9c:5c:ed:12:5e:a9:f3:67:24:8f:ef:81:ab:4b:11:19:26:
         cc:9e:1b:5f:53:78:45:ce:df:46:3c:b8:48:3e:50:eb:cb:4d:
         de:68:55:f3:a7:8f:e4:0a:7f:e9:c4:69:69:94:07:5a:5d:64:
         cf:63:a3:b5:23:23:cc:fe:28:57:52:1f:f7:a6:2b:ac:9d:51:
         70:4d:ca:b7:59:27:cb:5a:e5:77:e8:b3:fb:83:21:84:61:27:
         14:5f:66:e3:a6:58:a3:93:d3:66:2c:c0:a5:7e:8d:90:61:b1:
         d5:d6:8e:78:7e:bd:1b:ca:ac:1e:d3:0f:c4:7f:fe:ba:2b:59:
         de:23:fd:9d:53:af:48:a8:a3:05:e1:66:f8:ea:e3:ee:3e:65:
         92:43:19:9e:93:a7:71:1a:9b:6a:d5:8e:0c:67:0b:17:b3:61:
         2d:6d:ee:ba:57:57:68:c8:1f:92:ff:0c:a9:13:a0:17:ea:73:
         31:c3:63:57:7c:1a:9a:fb:c2:7a:45:eb:f6:30:6a:c9:94:c5:
         e3:4a:e3:87
-----BEGIN CERTIFICATE-----
MIIDrjCCApagAwIBAgIUbKnVctLWPRYuYI/ucf1hvaR4gLUwDQYJKoZIhvcNAQEL
BQAwWTELMAkGA1UEBhMCSlAxDjAMBgNVBAgMBVRva3lvMRMwEQYDVQQKDApNeUNv
cnAuTFREMQswCQYDVQQLDAJJVDEYMBYGA1UEAwwPTXlJbnRlckNhMjAwNDE5MB4X
DTIwMDQyMDAwMzYzMloXDTIxMDQyMDAwMzYzMlowWDELMAkGA1UEBhMCSlAxDjAM
BgNVBAgMBVRva3lvMRMwEQYDVQQKDApNeUNvcnAuTFREMQswCQYDVQQLDAJJVDEX
MBUGA1UEAwwOTXlDbGllbnQyMDA0MjAwggEiMA0GCSqGSIb3DQEBAQUAA4IBDwAw
ggEKAoIBAQDWhQIo5RHEJs5QSfD2YJxNhWJVBAtpadw9eJ6vjuRSE+6sHd+hBsl0
IBRjufTVR58jaZBE4Z5tnwdNgE7iB1x5jrcK52JS64IuuzSV4fMMY5Y1qCmw0Yqx
bBQ57RUTP20d3s5OHHvun/KLKQ/m1l3+hhv6Y7OEHTiuwb+YOzoQTmIGOEULx2ib
QnT1DbbWE5EsOhs5RnXkbmYzJJqeSH+Om/x+1VPV4bItMtR28QgBLakoMTE8TKXI
aYCtVD5K4Pk/sX0Zdxo7KKxdEWavfNtPdH5PcFf3fiNxnOGdbDFaLDPiScpif2s1
/9Z8u3UCz7gLLzBlVpkXYISP2cZIQP4JAgMBAAGjbzBtMAkGA1UdEwQCMAAwCwYD
VR0PBAQDAgWgMBMGA1UdJQQMMAoGCCsGAQUFBwMCMB0GA1UdDgQWBBS1xAxTXRsJ
B4P+t5XZtm7mSwtJUTAfBgNVHSMEGDAWgBTFWreidzc43TaSTDCIP0vnRaFX/zAN
BgkqhkiG9w0BAQsFAAOCAQEANTXuQZrJc3Nxm0GETlEb+nVqaDP60Gi3SZH2o/ro
wXI0DBUhqyOlq+ClGyHP1NdDFltMxMTOxJxc7RJeqfNnJI/vgatLERkmzJ4bX1N4
Rc7fRjy4SD5Q68tN3mhV86eP5Ap/6cRpaZQHWl1kz2OjtSMjzP4oV1If96YrrJ1R
cE3Kt1kny1rld+iz+4MhhGEnFF9m46ZYo5PTZizApX6NkGGx1daOeH69G8qsHtMP
xH/+uitZ3iP9nVOvSKijBeFm+Orj7j5lkkMZnpOncRqbatWODGcLF7NhLW3uuldX
aMgfkv8MqROgF+pzMcNjV3wamvvCekXr9jBqyZTF40rjhw==
-----END CERTIFICATE-----
