Certificate:
    Data:
        Version: 3 (0x2)
        Serial Number:
            6d:d4:75:13:44:63:d5:32:9f:7e:19:18:09:ab:80:e7:72:25:52:93
        Signature Algorithm: sha256WithRSAEncryption
        Issuer: C=JP, ST=Tokyo, O=ITC.CORP, OU=IT, CN=ConcertoInterCa200507
        Validity
            Not Before: May 11 04:45:17 2020 GMT
            Not After : May 12 04:45:17 2020 GMT
        Subject: C=JP, ST=Tokyo, O=ITC.CORP, OU=IT, CN=ConcertoClient200511A
        Subject Public Key Info:
            Public Key Algorithm: rsaEncryption
                RSA Public-Key: (2048 bit)
                Modulus:
                    00:e3:af:e0:4d:95:df:7d:2b:99:8d:80:7d:d5:35:
                    95:f9:c8:0c:fd:32:1d:63:7c:9e:89:0b:76:7f:48:
                    d9:27:5e:ee:bb:c1:19:18:8c:e9:2a:96:1c:57:49:
                    1e:ac:47:6f:66:da:e0:8a:9e:f6:0a:6e:06:50:19:
                    dd:e3:6f:9f:70:b7:f1:09:0b:82:d3:00:61:03:2e:
                    b4:70:76:65:a9:bb:85:29:e7:79:7a:dd:03:c0:b8:
                    8f:3d:f5:d7:72:4e:44:be:51:fe:7d:41:0e:9f:aa:
                    af:46:29:07:03:aa:d0:62:c3:12:94:fa:42:1a:60:
                    3d:a2:41:a5:77:29:8a:90:65:68:b4:14:c8:10:10:
                    28:7a:e8:db:af:44:36:7b:0b:0c:43:88:82:27:7d:
                    d3:2c:75:f8:d9:95:89:98:f0:5a:60:26:03:94:17:
                    ba:ed:b6:00:4a:05:ec:b5:c4:04:ac:64:ef:b6:e2:
                    16:63:bb:7d:f2:5b:2e:97:44:6d:5b:1d:a8:30:9b:
                    76:9f:5f:f5:99:39:94:35:cc:c0:2b:22:3e:73:59:
                    21:96:7e:39:6c:5f:01:25:d4:f8:33:ca:af:b2:d5:
                    7a:b0:26:30:79:56:cb:ca:d6:9d:c2:1b:b6:3b:01:
                    10:53:61:18:f7:8b:ee:7c:8e:a4:9e:3b:1b:46:8a:
                    43:d7
                Exponent: 65537 (0x10001)
        X509v3 extensions:
            X509v3 Basic Constraints: 
                CA:FALSE
            X509v3 Key Usage: 
                Digital Signature, Key Encipherment
            X509v3 Extended Key Usage: 
                TLS Web Client Authentication
            X509v3 Subject Key Identifier: 
                71:C1:84:A0:28:AF:F2:68:E1:16:63:3A:18:B3:FE:1E:7F:39:1E:F1
            X509v3 Authority Key Identifier: 
                keyid:6E:8E:30:E6:3B:F4:45:42:38:37:1C:F0:16:DC:D4:54:0E:E4:DB:B8

    Signature Algorithm: sha256WithRSAEncryption
         5c:d3:d7:5a:bb:0d:b0:df:7b:3b:52:10:70:54:0b:d0:1c:6d:
         e7:8d:c2:73:65:9a:42:4e:b2:02:70:ae:4d:f4:ed:a5:9d:01:
         22:6e:e3:f2:02:ff:b1:3e:68:7b:6b:63:d1:16:e6:6c:46:15:
         48:86:e9:a9:73:94:ad:9f:2b:14:52:75:73:56:d4:cc:63:70:
         89:cd:00:55:78:5d:80:48:12:47:c9:33:a4:de:7f:c3:c2:92:
         60:7a:4d:e1:66:6c:74:f5:e2:46:6c:11:cd:a7:05:cc:b9:6b:
         da:14:01:f9:c3:ea:83:36:96:2f:8d:1c:8a:ba:d9:a8:37:da:
         cc:59:e8:2a:20:8b:e7:5d:37:2b:c3:8d:45:9b:10:bb:87:97:
         32:9b:8b:00:2a:85:40:67:20:b0:0f:5e:7b:9c:b3:a7:df:ca:
         4d:cf:d5:45:d4:28:7b:12:7f:07:c2:74:4f:c1:b8:12:7a:c8:
         1a:30:5d:36:2e:df:d2:33:f4:8f:2a:e2:2a:97:32:00:a3:a1:
         13:66:db:17:91:7f:3a:c1:6a:9b:a5:fd:c9:94:e1:09:a3:91:
         79:6f:d4:27:a4:92:f3:0b:31:fc:31:17:b1:22:21:6f:f4:5f:
         ef:46:5d:26:00:c4:f5:25:1b:86:3f:c2:b3:d5:95:cb:bb:a3:
         a8:2b:b0:aa
-----BEGIN CERTIFICATE-----
MIIDtzCCAp+gAwIBAgIUbdR1E0Rj1TKffhkYCauA53IlUpMwDQYJKoZIhvcNAQEL
BQAwXTELMAkGA1UEBhMCSlAxDjAMBgNVBAgMBVRva3lvMREwDwYDVQQKDAhJVEMu
Q09SUDELMAkGA1UECwwCSVQxHjAcBgNVBAMMFUNvbmNlcnRvSW50ZXJDYTIwMDUw
NzAeFw0yMDA1MTEwNDQ1MTdaFw0yMDA1MTIwNDQ1MTdaMF0xCzAJBgNVBAYTAkpQ
MQ4wDAYDVQQIDAVUb2t5bzERMA8GA1UECgwISVRDLkNPUlAxCzAJBgNVBAsMAklU
MR4wHAYDVQQDDBVDb25jZXJ0b0NsaWVudDIwMDUxMUEwggEiMA0GCSqGSIb3DQEB
AQUAA4IBDwAwggEKAoIBAQDjr+BNld99K5mNgH3VNZX5yAz9Mh1jfJ6JC3Z/SNkn
Xu67wRkYjOkqlhxXSR6sR29m2uCKnvYKbgZQGd3jb59wt/EJC4LTAGEDLrRwdmWp
u4Up53l63QPAuI899ddyTkS+Uf59QQ6fqq9GKQcDqtBiwxKU+kIaYD2iQaV3KYqQ
ZWi0FMgQECh66NuvRDZ7CwxDiIInfdMsdfjZlYmY8FpgJgOUF7rttgBKBey1xASs
ZO+24hZju33yWy6XRG1bHagwm3afX/WZOZQ1zMArIj5zWSGWfjlsXwEl1Pgzyq+y
1XqwJjB5VsvK1p3CG7Y7ARBTYRj3i+58jqSeOxtGikPXAgMBAAGjbzBtMAkGA1Ud
EwQCMAAwCwYDVR0PBAQDAgWgMBMGA1UdJQQMMAoGCCsGAQUFBwMCMB0GA1UdDgQW
BBRxwYSgKK/yaOEWYzoYs/4efzke8TAfBgNVHSMEGDAWgBRujjDmO/RFQjg3HPAW
3NRUDuTbuDANBgkqhkiG9w0BAQsFAAOCAQEAXNPXWrsNsN97O1IQcFQL0Bxt543C
c2WaQk6yAnCuTfTtpZ0BIm7j8gL/sT5oe2tj0RbmbEYVSIbpqXOUrZ8rFFJ1c1bU
zGNwic0AVXhdgEgSR8kzpN5/w8KSYHpN4WZsdPXiRmwRzacFzLlr2hQB+cPqgzaW
L40cirrZqDfazFnoKiCL5103K8ONRZsQu4eXMpuLACqFQGcgsA9ee5yzp9/KTc/V
RdQoexJ/B8J0T8G4EnrIGjBdNi7f0jP0jyriKpcyAKOhE2bbF5F/OsFqm6X9yZTh
CaOReW/UJ6SS8wsx/DEXsSIhb/Rf70ZdJgDE9SUbhj/Cs9WVy7ujqCuwqg==
-----END CERTIFICATE-----
