Certificate:
    Data:
        Version: 3 (0x2)
        Serial Number:
            75:25:3b:50:56:ca:f8:97:29:79:22:73:b4:37:f2:68:24:d9:8e:4c
        Signature Algorithm: sha256WithRSAEncryption
        Issuer: C=JP, ST=Tokyo, O=ITC.CORP, OU=IT, CN=ConcertoInterCa200507
        Validity
            Not Before: May 11 01:43:01 2020 GMT
            Not After : May  6 01:43:01 2040 GMT
        Subject: C=JP, ST=Tokyo, O=ITC.CORP, OU=IT, CN=localhost
        Subject Public Key Info:
            Public Key Algorithm: rsaEncryption
                RSA Public-Key: (2048 bit)
                Modulus:
                    00:e5:9b:21:d4:68:01:60:1d:e9:0e:28:86:93:71:
                    fe:24:b8:6a:a2:4d:86:d9:7e:b8:49:cd:6f:4e:a3:
                    8d:c5:ac:6a:89:66:55:00:57:98:ce:e6:c5:73:c4:
                    e6:93:df:1b:e8:6a:ff:fa:9e:b0:54:97:df:03:ff:
                    34:f1:6f:32:68:36:b5:04:d6:06:07:09:da:e8:de:
                    c3:c2:3e:40:6f:ab:0d:37:9f:cd:30:99:3c:c0:8a:
                    bf:97:ca:e4:0a:10:98:20:61:ab:75:49:3e:f1:d1:
                    80:3a:25:3e:5f:e8:07:4a:c3:05:63:5f:97:55:83:
                    9a:3b:48:5f:d4:34:ae:2b:55:40:b8:82:25:0b:c4:
                    2a:4e:6c:c1:60:a3:ff:01:8e:df:84:f1:04:62:96:
                    a0:1d:0f:87:21:01:a4:61:61:0a:c0:57:bd:ef:3e:
                    a8:e6:0d:3d:c8:c5:f8:54:37:fb:0d:b9:c8:ef:4c:
                    73:c2:7c:cd:fe:6c:73:a7:2c:6a:93:c5:ab:6d:d1:
                    99:57:17:e7:2a:bc:56:e1:20:6b:34:c7:13:81:36:
                    5c:61:49:49:d2:9e:ce:43:94:07:a5:be:44:66:31:
                    be:92:a0:96:87:34:36:e3:6c:fc:97:b3:66:3b:7c:
                    45:f3:d1:66:2a:11:f3:6c:5c:c7:f8:c3:a4:8f:a2:
                    2c:ad
                Exponent: 65537 (0x10001)
        X509v3 extensions:
            X509v3 Basic Constraints: 
                CA:FALSE
            X509v3 Key Usage: 
                Digital Signature, Key Encipherment
            X509v3 Extended Key Usage: 
                TLS Web Server Authentication
            X509v3 Subject Key Identifier: 
                56:F0:54:6D:D9:7B:1A:9F:C4:BF:46:77:F3:63:23:2A:1F:13:C5:46
            X509v3 Authority Key Identifier: 
                keyid:6E:8E:30:E6:3B:F4:45:42:38:37:1C:F0:16:DC:D4:54:0E:E4:DB:B8

    Signature Algorithm: sha256WithRSAEncryption
         6d:e0:1c:70:fa:df:5e:2d:de:06:90:e4:d5:9c:af:79:61:b5:
         78:95:d1:83:c8:cb:9b:38:85:a8:42:fc:d1:c7:1c:94:ee:83:
         8e:16:20:a4:83:ba:b3:5f:00:41:4c:e9:ec:c5:03:23:77:d1:
         f8:86:6d:9e:21:b9:ba:8e:e5:44:91:31:07:30:d9:40:40:96:
         f3:b0:28:3e:a2:ef:6f:73:fb:b4:cd:8a:03:63:ed:5e:e8:e8:
         3b:7c:d5:f3:4b:73:50:17:4c:e6:ca:e8:2d:33:88:7e:e1:79:
         c8:db:3c:17:10:60:85:66:93:ec:1c:0b:4f:8b:db:47:61:10:
         95:a9:9f:8d:ef:3b:66:95:f3:01:33:77:45:c5:ec:6b:96:89:
         33:05:0d:b3:66:68:dc:8e:ac:fb:f6:d3:8b:8e:e6:7a:c0:8e:
         45:fe:b4:e8:fa:1b:0a:20:de:9b:a1:02:ba:f1:28:7f:e4:b8:
         e6:89:9f:f8:5a:63:24:68:b4:ca:17:c4:08:f3:8a:48:76:fb:
         4c:0f:dc:e2:d8:c7:d5:fe:8f:6e:e9:9b:b2:4c:1c:34:c6:27:
         d7:6c:ef:c0:8d:ea:9a:ba:4a:79:29:3f:60:6b:30:27:5e:bd:
         d5:1e:70:64:64:96:65:e2:64:b0:62:c2:84:68:19:a4:ba:9f:
         dc:5d:be:ba
-----BEGIN CERTIFICATE-----
MIIDqzCCApOgAwIBAgIUdSU7UFbK+JcpeSJztDfyaCTZjkwwDQYJKoZIhvcNAQEL
BQAwXTELMAkGA1UEBhMCSlAxDjAMBgNVBAgMBVRva3lvMREwDwYDVQQKDAhJVEMu
Q09SUDELMAkGA1UECwwCSVQxHjAcBgNVBAMMFUNvbmNlcnRvSW50ZXJDYTIwMDUw
NzAeFw0yMDA1MTEwMTQzMDFaFw00MDA1MDYwMTQzMDFaMFExCzAJBgNVBAYTAkpQ
MQ4wDAYDVQQIDAVUb2t5bzERMA8GA1UECgwISVRDLkNPUlAxCzAJBgNVBAsMAklU
MRIwEAYDVQQDDAlsb2NhbGhvc3QwggEiMA0GCSqGSIb3DQEBAQUAA4IBDwAwggEK
AoIBAQDlmyHUaAFgHekOKIaTcf4kuGqiTYbZfrhJzW9Oo43FrGqJZlUAV5jO5sVz
xOaT3xvoav/6nrBUl98D/zTxbzJoNrUE1gYHCdro3sPCPkBvqw03n80wmTzAir+X
yuQKEJggYat1ST7x0YA6JT5f6AdKwwVjX5dVg5o7SF/UNK4rVUC4giULxCpObMFg
o/8Bjt+E8QRilqAdD4chAaRhYQrAV73vPqjmDT3IxfhUN/sNucjvTHPCfM3+bHOn
LGqTxatt0ZlXF+cqvFbhIGs0xxOBNlxhSUnSns5DlAelvkRmMb6SoJaHNDbjbPyX
s2Y7fEXz0WYqEfNsXMf4w6SPoiytAgMBAAGjbzBtMAkGA1UdEwQCMAAwCwYDVR0P
BAQDAgWgMBMGA1UdJQQMMAoGCCsGAQUFBwMBMB0GA1UdDgQWBBRW8FRt2Xsan8S/
RnfzYyMqHxPFRjAfBgNVHSMEGDAWgBRujjDmO/RFQjg3HPAW3NRUDuTbuDANBgkq
hkiG9w0BAQsFAAOCAQEAbeAccPrfXi3eBpDk1ZyveWG1eJXRg8jLmziFqEL80ccc
lO6DjhYgpIO6s18AQUzp7MUDI3fR+IZtniG5uo7lRJExBzDZQECW87AoPqLvb3P7
tM2KA2PtXujoO3zV80tzUBdM5sroLTOIfuF5yNs8FxBghWaT7BwLT4vbR2EQlamf
je87ZpXzATN3RcXsa5aJMwUNs2Zo3I6s+/bTi47mesCORf606PobCiDem6ECuvEo
f+S45omf+FpjJGi0yhfECPOKSHb7TA/c4tjH1f6PbumbskwcNMYn12zvwI3qmrpK
eSk/YGswJ1691R5wZGSWZeJksGLChGgZpLqf3F2+ug==
-----END CERTIFICATE-----
