Certificate:
    Data:
        Version: 3 (0x2)
        Serial Number:
            1c:b5:6b:e1:77:d0:15:c7:03:3d:a1:87:f7:20:f0:8a:8b:9c:ff:25
        Signature Algorithm: sha256WithRSAEncryption
        Issuer: C=JP, ST=Tokyo, L=Fuchu, O=ITC.CORP, OU=IT, CN=ConcertoRootCa200508
        Validity
            Not Before: May  7 23:03:29 2020 GMT
            Not After : May  5 23:03:29 2030 GMT
        Subject: C=JP, ST=Tokyo, O=ITC.CORP, OU=IT, CN=ConcertoInterCa200508
        Subject Public Key Info:
            Public Key Algorithm: rsaEncryption
                RSA Public-Key: (2048 bit)
                Modulus:
                    00:c1:e8:86:51:fa:bd:54:de:50:43:ac:f6:46:79:
                    ea:e5:5c:53:c0:ff:92:56:49:be:ec:51:c8:67:c9:
                    b2:9c:04:a1:83:01:32:a8:11:d7:3c:03:43:aa:7c:
                    c4:db:5c:61:56:a2:e1:94:82:c4:09:e7:1d:00:b6:
                    06:bc:15:9e:f6:a7:38:54:f8:87:d5:56:81:04:cf:
                    96:f4:10:2b:0f:b7:9e:12:b0:20:08:3f:a4:91:c3:
                    3b:4a:d6:76:a9:00:bf:f0:06:c7:a4:b3:7a:f3:bd:
                    e2:f0:22:a3:91:87:d5:23:5d:8a:57:6c:7f:3c:fc:
                    90:09:c3:35:d3:d4:72:26:3e:5a:12:6a:25:64:0c:
                    a6:80:d0:33:52:ef:08:0e:45:16:76:3b:64:7d:d6:
                    0e:fb:34:0c:cd:05:7a:ed:90:d4:d3:d9:1d:6a:cc:
                    f5:57:c2:a3:89:42:bc:ee:38:f3:ff:49:d0:13:f8:
                    ac:45:b6:c4:06:de:c6:34:e8:54:49:6f:c8:a5:6e:
                    53:f3:ad:34:03:8e:ab:12:46:89:81:d5:54:7b:60:
                    e6:34:01:bf:ec:99:bf:92:7e:c6:ce:bd:3c:85:07:
                    08:02:e5:bb:a9:8f:64:48:a7:90:3e:44:97:50:fb:
                    a8:a0:8a:76:fb:9d:80:2b:03:0c:dd:e8:15:5c:bd:
                    34:bf
                Exponent: 65537 (0x10001)
        X509v3 extensions:
            X509v3 Subject Key Identifier: 
                25:2A:B5:6D:58:86:A2:D3:B8:6A:D2:B1:20:3A:B4:73:A3:BF:53:27
            X509v3 Authority Key Identifier: 
                keyid:B1:3B:AB:81:30:48:8D:4A:61:8E:91:59:DF:B7:51:33:6C:51:B0:61

            X509v3 Basic Constraints: critical
                CA:TRUE
    Signature Algorithm: sha256WithRSAEncryption
         13:f0:af:8b:9c:0e:a9:9b:44:7c:e3:0d:ae:1c:0f:db:9b:8b:
         86:0a:91:69:3b:43:69:27:5c:fb:b3:8a:76:80:64:2b:22:04:
         48:42:66:72:a1:5a:01:24:64:6d:73:eb:24:4f:23:c4:e2:43:
         4d:74:4b:8a:19:b4:8d:a8:22:9d:94:59:0f:7e:a2:26:2f:e6:
         68:e8:f2:9a:4e:b4:74:ec:68:df:43:15:4e:67:3a:52:24:94:
         33:24:a8:44:34:d1:2b:c3:05:b0:3e:73:db:63:40:58:f0:30:
         b5:b7:b7:63:04:2a:01:f3:77:b8:20:18:ed:ac:cf:21:d1:24:
         25:f2:ba:0b:93:47:94:8c:22:50:29:99:25:f2:9d:b9:93:3b:
         3c:8c:35:47:05:f9:14:ff:df:5f:aa:3e:bd:74:35:2f:ac:fb:
         fd:67:fb:38:85:f3:3c:0e:46:d7:c4:60:ed:55:c6:93:a0:d1:
         10:0f:c2:e5:20:e4:f8:5d:96:82:1c:ba:1f:06:08:1a:14:75:
         1e:43:d7:f5:4c:8b:73:76:51:1f:33:cb:1e:17:f3:35:0b:66:
         28:68:eb:ee:2c:77:d6:ca:0d:a2:74:d5:47:20:d9:87:7b:88:
         6a:4e:01:09:e2:8e:f5:67:bd:40:3e:62:9f:f6:7a:20:dc:53:
         fc:86:23:cf
-----BEGIN CERTIFICATE-----
MIIDqjCCApKgAwIBAgIUHLVr4XfQFccDPaGH9yDwiouc/yUwDQYJKoZIhvcNAQEL
BQAwbDELMAkGA1UEBhMCSlAxDjAMBgNVBAgMBVRva3lvMQ4wDAYDVQQHDAVGdWNo
dTERMA8GA1UECgwISVRDLkNPUlAxCzAJBgNVBAsMAklUMR0wGwYDVQQDDBRDb25j
ZXJ0b1Jvb3RDYTIwMDUwODAeFw0yMDA1MDcyMzAzMjlaFw0zMDA1MDUyMzAzMjla
MF0xCzAJBgNVBAYTAkpQMQ4wDAYDVQQIDAVUb2t5bzERMA8GA1UECgwISVRDLkNP
UlAxCzAJBgNVBAsMAklUMR4wHAYDVQQDDBVDb25jZXJ0b0ludGVyQ2EyMDA1MDgw
ggEiMA0GCSqGSIb3DQEBAQUAA4IBDwAwggEKAoIBAQDB6IZR+r1U3lBDrPZGeerl
XFPA/5JWSb7sUchnybKcBKGDATKoEdc8A0OqfMTbXGFWouGUgsQJ5x0Atga8FZ72
pzhU+IfVVoEEz5b0ECsPt54SsCAIP6SRwztK1napAL/wBseks3rzveLwIqORh9Uj
XYpXbH88/JAJwzXT1HImPloSaiVkDKaA0DNS7wgORRZ2O2R91g77NAzNBXrtkNTT
2R1qzPVXwqOJQrzuOPP/SdAT+KxFtsQG3sY06FRJb8ilblPzrTQDjqsSRomB1VR7
YOY0Ab/smb+SfsbOvTyFBwgC5bupj2RIp5A+RJdQ+6iginb7nYArAwzd6BVcvTS/
AgMBAAGjUzBRMB0GA1UdDgQWBBQlKrVtWIai07hq0rEgOrRzo79TJzAfBgNVHSME
GDAWgBSxO6uBMEiNSmGOkVnft1EzbFGwYTAPBgNVHRMBAf8EBTADAQH/MA0GCSqG
SIb3DQEBCwUAA4IBAQAT8K+LnA6pm0R84w2uHA/bm4uGCpFpO0NpJ1z7s4p2gGQr
IgRIQmZyoVoBJGRtc+skTyPE4kNNdEuKGbSNqCKdlFkPfqImL+Zo6PKaTrR07Gjf
QxVOZzpSJJQzJKhENNErwwWwPnPbY0BY8DC1t7djBCoB83e4IBjtrM8h0SQl8roL
k0eUjCJQKZkl8p25kzs8jDVHBfkU/99fqj69dDUvrPv9Z/s4hfM8DkbXxGDtVcaT
oNEQD8LlIOT4XZaCHLofBggaFHUeQ9f1TItzdlEfM8seF/M1C2YoaOvuLHfWyg2i
dNVHINmHe4hqTgEJ4o71Z71APmKf9nog3FP8hiPP
-----END CERTIFICATE-----
