Certificate:
    Data:
        Version: 3 (0x2)
        Serial Number:
            1e:36:20:86:e2:52:05:ce:ac:a5:6c:22:b5:b5:8c:73:cc:72:fe:e4
        Signature Algorithm: sha256WithRSAEncryption
        Issuer: C=JP, ST=Tokyo, L=Chuou, O=MyCorp.LTD, OU=IT, CN=MyRootCa200419
        Validity
            Not Before: Apr 19 01:34:35 2020 GMT
            Not After : Apr 17 01:34:35 2030 GMT
        Subject: C=JP, ST=Tokyo, O=MyCorp.LTD, OU=IT, CN=MyInterCa200419
        Subject Public Key Info:
            Public Key Algorithm: rsaEncryption
                RSA Public-Key: (2048 bit)
                Modulus:
                    00:b9:dd:7e:e2:cf:61:1f:e0:1a:b8:6f:1e:e1:07:
                    b7:10:66:c0:3e:78:f0:cb:86:50:e0:2b:3b:d2:dd:
                    d3:5f:4c:c6:15:7c:65:0c:18:57:60:ec:ef:ce:3a:
                    e2:99:14:69:91:c4:70:0e:f7:0a:4b:0d:89:43:e0:
                    c6:81:ba:e6:4b:9f:a8:11:b0:32:96:1a:8b:5a:45:
                    65:4b:e1:c1:f7:c0:7a:1b:b7:55:9e:3f:5c:21:7c:
                    ad:14:4f:44:ec:24:2f:38:00:a9:60:c4:87:fe:37:
                    ef:b7:0e:71:ee:f6:22:98:ab:32:1a:06:d9:5d:0f:
                    58:f1:15:aa:9e:79:69:1c:ac:4a:63:69:66:c2:fb:
                    f2:97:99:ec:bc:5e:64:2a:ca:58:0c:78:d9:8f:e7:
                    61:21:57:19:3b:d3:8b:04:30:c1:ab:50:4c:6c:c0:
                    e7:cb:8e:9e:82:b2:a8:ae:35:9b:89:da:5b:eb:f7:
                    ba:1a:cd:b2:f3:ca:29:0f:70:6b:5a:d7:94:cc:8c:
                    5a:3e:1a:52:58:a2:7d:39:a4:e3:e2:71:83:6c:39:
                    b7:2b:d1:a0:79:56:51:0c:2b:df:ac:71:4d:42:ac:
                    88:35:82:40:7a:fa:91:a1:a1:d1:71:af:ff:e3:cf:
                    73:b8:e3:6c:03:3f:83:a5:8d:27:43:28:2f:4b:69:
                    2b:53
                Exponent: 65537 (0x10001)
        X509v3 extensions:
            X509v3 Subject Key Identifier: 
                C5:5A:B7:A2:77:37:38:DD:36:92:4C:30:88:3F:4B:E7:45:A1:57:FF
            X509v3 Authority Key Identifier: 
                keyid:44:91:90:BA:B7:03:EB:D3:B3:B9:32:E8:AE:AD:37:E4:70:11:01:D3

            X509v3 Basic Constraints: critical
                CA:TRUE
    Signature Algorithm: sha256WithRSAEncryption
         90:bf:75:46:b2:cd:8d:8c:55:2d:01:9c:95:ec:17:ae:6c:26:
         6d:b7:e5:5c:00:02:6d:db:bf:62:85:32:26:1a:a1:17:d2:0e:
         cd:b6:14:af:cb:44:04:a1:27:98:9e:25:fd:4b:8c:bc:a7:22:
         db:48:d1:b0:cc:f9:26:56:d5:e5:54:b7:0a:3c:39:76:fb:7a:
         7d:21:2c:dc:df:b9:48:51:de:e9:61:79:3c:68:c2:02:d0:e6:
         34:d6:db:de:78:a9:8e:43:0b:97:24:a0:24:fb:54:b7:32:52:
         3e:fe:67:c5:4c:56:64:a3:d0:32:4b:f7:03:6e:3f:c5:46:34:
         da:f6:f1:68:fc:e9:0c:84:03:d0:73:60:32:45:22:1d:39:10:
         93:cc:88:2a:a0:e5:e4:a2:8e:3d:23:3d:28:a6:91:54:94:2c:
         fb:e7:d8:be:42:70:05:94:0c:a6:b0:ad:bc:4b:3b:50:68:5a:
         28:36:f8:a3:d7:ae:11:e3:36:85:39:ca:57:f6:67:eb:15:04:
         cd:28:c8:35:2b:75:4d:8d:c3:e5:95:00:8d:6a:8e:81:c0:69:
         36:bb:ca:a5:ab:99:dc:2c:df:74:c3:e3:46:e6:05:70:fb:19:
         7a:5d:02:0a:96:20:4b:29:4f:cb:ce:cc:e1:65:ad:52:5a:cd:
         69:4e:c9:69
-----BEGIN CERTIFICATE-----
MIIDojCCAoqgAwIBAgIUHjYghuJSBc6spWwitbWMc8xy/uQwDQYJKoZIhvcNAQEL
BQAwaDELMAkGA1UEBhMCSlAxDjAMBgNVBAgMBVRva3lvMQ4wDAYDVQQHDAVDaHVv
dTETMBEGA1UECgwKTXlDb3JwLkxURDELMAkGA1UECwwCSVQxFzAVBgNVBAMMDk15
Um9vdENhMjAwNDE5MB4XDTIwMDQxOTAxMzQzNVoXDTMwMDQxNzAxMzQzNVowWTEL
MAkGA1UEBhMCSlAxDjAMBgNVBAgMBVRva3lvMRMwEQYDVQQKDApNeUNvcnAuTFRE
MQswCQYDVQQLDAJJVDEYMBYGA1UEAwwPTXlJbnRlckNhMjAwNDE5MIIBIjANBgkq
hkiG9w0BAQEFAAOCAQ8AMIIBCgKCAQEAud1+4s9hH+AauG8e4Qe3EGbAPnjwy4ZQ
4Cs70t3TX0zGFXxlDBhXYOzvzjrimRRpkcRwDvcKSw2JQ+DGgbrmS5+oEbAylhqL
WkVlS+HB98B6G7dVnj9cIXytFE9E7CQvOACpYMSH/jfvtw5x7vYimKsyGgbZXQ9Y
8RWqnnlpHKxKY2lmwvvyl5nsvF5kKspYDHjZj+dhIVcZO9OLBDDBq1BMbMDny46e
grKorjWbidpb6/e6Gs2y88opD3BrWteUzIxaPhpSWKJ9OaTj4nGDbDm3K9GgeVZR
DCvfrHFNQqyINYJAevqRoaHRca//489zuONsAz+DpY0nQygvS2krUwIDAQABo1Mw
UTAdBgNVHQ4EFgQUxVq3onc3ON02kkwwiD9L50WhV/8wHwYDVR0jBBgwFoAURJGQ
urcD69OzuTLorq035HARAdMwDwYDVR0TAQH/BAUwAwEB/zANBgkqhkiG9w0BAQsF
AAOCAQEAkL91RrLNjYxVLQGclewXrmwmbbflXAACbdu/YoUyJhqhF9IOzbYUr8tE
BKEnmJ4l/UuMvKci20jRsMz5JlbV5VS3Cjw5dvt6fSEs3N+5SFHe6WF5PGjCAtDm
NNbb3nipjkMLlySgJPtUtzJSPv5nxUxWZKPQMkv3A24/xUY02vbxaPzpDIQD0HNg
MkUiHTkQk8yIKqDl5KKOPSM9KKaRVJQs++fYvkJwBZQMprCtvEs7UGhaKDb4o9eu
EeM2hTnKV/Zn6xUEzSjINSt1TY3D5ZUAjWqOgcBpNrvKpauZ3CzfdMPjRuYFcPsZ
el0CCpYgSylPy87M4WWtUlrNaU7JaQ==
-----END CERTIFICATE-----
