Certificate:
    Data:
        Version: 3 (0x2)
        Serial Number:
            44:fb:38:94:53:ba:23:bd:f6:a3:fa:88:7f:67:81:78:96:4a:3e:ef
        Signature Algorithm: sha256WithRSAEncryption
        Issuer: C=JP, ST=Tokyo, L=Fuchu, O=ITC.CORP, OU=IT, CN=ConcertoRootCa200508
        Validity
            Not Before: May  7 22:16:24 2020 GMT
            Not After : May  2 22:16:24 2040 GMT
        Subject: C=JP, ST=Tokyo, O=ITC.CORP, OU=IT, CN=ConcertoInterCa200508
        Subject Public Key Info:
            Public Key Algorithm: rsaEncryption
                RSA Public-Key: (2048 bit)
                Modulus:
                    00:9d:56:03:4c:da:ff:37:66:53:fe:15:9c:32:2f:
                    91:bf:29:d6:72:55:0a:a9:18:85:62:b5:88:92:c9:
                    09:bd:1c:30:1e:ed:8d:a7:a1:bc:ad:99:81:d6:16:
                    97:cf:36:ae:f6:4b:e6:da:65:99:3f:85:82:a8:bb:
                    de:5f:0d:54:08:2f:67:d6:27:f8:49:2e:ab:06:52:
                    80:d6:88:36:44:9c:3e:f3:d7:ee:54:d7:9a:49:1d:
                    dc:66:7e:c2:4f:36:24:52:5f:d6:60:4b:ed:b0:13:
                    a3:73:b9:11:94:69:aa:3c:3a:ba:18:dc:4a:08:08:
                    a6:a1:15:bb:24:d1:f6:c7:4c:19:6d:19:3e:c9:94:
                    7b:ee:ff:20:9f:b2:69:fa:d9:a2:4b:d2:ec:59:49:
                    fd:14:73:99:78:5f:5b:fd:f0:84:d2:c5:96:9c:5a:
                    b8:93:d9:79:d5:26:9b:67:2a:96:0e:13:7e:8c:2a:
                    77:16:30:97:4b:ca:e8:89:f1:75:12:c8:40:a9:13:
                    45:bb:44:09:48:60:0e:2c:be:93:56:db:25:ad:92:
                    07:d1:1b:9a:72:d2:ee:4d:32:a1:97:6a:e6:59:5d:
                    4f:e6:8b:47:9e:dc:23:6b:50:3e:21:20:42:c7:1d:
                    06:92:d2:a4:62:fe:65:09:cf:13:98:fe:c7:9d:18:
                    89:11
                Exponent: 65537 (0x10001)
        X509v3 extensions:
            X509v3 Subject Key Identifier: 
                12:CD:9A:85:E8:FB:D9:CB:A4:4E:00:FD:8F:34:72:C6:98:C9:3E:D7
            X509v3 Authority Key Identifier: 
                keyid:E3:39:0A:C5:A4:6F:F8:67:39:19:F6:A1:5D:C0:C7:05:6C:50:B4:DD

            X509v3 Basic Constraints: critical
                CA:TRUE
    Signature Algorithm: sha256WithRSAEncryption
         b2:b9:a0:87:29:a5:3c:cb:e6:a3:a4:55:f5:d8:e3:47:f9:dc:
         fc:8e:02:ff:8d:d7:da:1d:62:1c:e0:83:24:5c:39:32:33:5e:
         23:09:61:5b:8c:e6:75:cc:ce:cf:2b:8f:25:87:ec:ce:34:09:
         9e:84:46:a4:b1:18:6d:8f:62:e7:60:74:76:bb:05:73:1f:95:
         99:a0:8a:c8:98:eb:8b:26:71:d9:14:4f:06:7f:c0:56:ba:e4:
         f1:80:99:df:e8:66:c5:a0:4d:8f:34:ed:ea:bd:f7:ae:25:ff:
         eb:a9:06:a4:f9:6a:1b:89:01:7d:72:5e:b3:05:d9:6b:4a:46:
         2e:5e:1b:07:67:9a:e2:0f:47:7d:ef:6b:3b:b1:97:4a:08:d2:
         08:04:52:7b:f9:55:34:2c:a1:49:ba:e4:3d:83:62:38:22:30:
         26:6d:c0:4f:2f:74:6f:ed:f6:7e:bb:d1:d0:9c:bc:77:5c:11:
         a4:65:38:8c:e5:a7:08:49:36:f4:ef:79:c9:62:6d:61:d8:13:
         8a:7b:15:6a:1c:23:2a:e4:0e:21:fd:88:d3:cf:85:02:db:5b:
         a4:eb:fd:93:7a:39:6b:6f:0c:e0:28:27:19:e1:94:4a:78:0a:
         db:ce:63:08:94:55:e7:28:2b:b7:1c:d7:05:74:57:2f:80:a3:
         11:c7:c0:04
-----BEGIN CERTIFICATE-----
MIIDqjCCApKgAwIBAgIURPs4lFO6I732o/qIf2eBeJZKPu8wDQYJKoZIhvcNAQEL
BQAwbDELMAkGA1UEBhMCSlAxDjAMBgNVBAgMBVRva3lvMQ4wDAYDVQQHDAVGdWNo
dTERMA8GA1UECgwISVRDLkNPUlAxCzAJBgNVBAsMAklUMR0wGwYDVQQDDBRDb25j
ZXJ0b1Jvb3RDYTIwMDUwODAeFw0yMDA1MDcyMjE2MjRaFw00MDA1MDIyMjE2MjRa
MF0xCzAJBgNVBAYTAkpQMQ4wDAYDVQQIDAVUb2t5bzERMA8GA1UECgwISVRDLkNP
UlAxCzAJBgNVBAsMAklUMR4wHAYDVQQDDBVDb25jZXJ0b0ludGVyQ2EyMDA1MDgw
ggEiMA0GCSqGSIb3DQEBAQUAA4IBDwAwggEKAoIBAQCdVgNM2v83ZlP+FZwyL5G/
KdZyVQqpGIVitYiSyQm9HDAe7Y2nobytmYHWFpfPNq72S+baZZk/hYKou95fDVQI
L2fWJ/hJLqsGUoDWiDZEnD7z1+5U15pJHdxmfsJPNiRSX9ZgS+2wE6NzuRGUaao8
OroY3EoICKahFbsk0fbHTBltGT7JlHvu/yCfsmn62aJL0uxZSf0Uc5l4X1v98ITS
xZacWriT2XnVJptnKpYOE36MKncWMJdLyuiJ8XUSyECpE0W7RAlIYA4svpNW2yWt
kgfRG5py0u5NMqGXauZZXU/mi0ee3CNrUD4hIELHHQaS0qRi/mUJzxOY/sedGIkR
AgMBAAGjUzBRMB0GA1UdDgQWBBQSzZqF6PvZy6ROAP2PNHLGmMk+1zAfBgNVHSME
GDAWgBTjOQrFpG/4ZzkZ9qFdwMcFbFC03TAPBgNVHRMBAf8EBTADAQH/MA0GCSqG
SIb3DQEBCwUAA4IBAQCyuaCHKaU8y+ajpFX12ONH+dz8jgL/jdfaHWIc4IMkXDky
M14jCWFbjOZ1zM7PK48lh+zONAmehEaksRhtj2LnYHR2uwVzH5WZoIrImOuLJnHZ
FE8Gf8BWuuTxgJnf6GbFoE2PNO3qvfeuJf/rqQak+WobiQF9cl6zBdlrSkYuXhsH
Z5riD0d972s7sZdKCNIIBFJ7+VU0LKFJuuQ9g2I4IjAmbcBPL3Rv7fZ+u9HQnLx3
XBGkZTiM5acISTb073nJYm1h2BOKexVqHCMq5A4h/YjTz4UC21uk6/2Tejlrbwzg
KCcZ4ZRKeArbzmMIlFXnKCu3HNcFdFcvgKMRx8AE
-----END CERTIFICATE-----
