-----BEGIN CERTIFICATE-----
MIIDsTCCApmgAwIBAgIUQvDYn4ckvJJgzywgJtCnGK2+QlcwDQYJKoZIhvcNAQEL
BQAwaDELMAkGA1UEBhMCSlAxDjAMBgNVBAgMBVRva3lvMQ4wDAYDVQQHDAVDaHVv
dTETMBEGA1UECgwKTXlDb3JwLkxURDELMAkGA1UECwwCSVQxFzAVBgNVBAMMDk15
Um9vdENhMjAwNDE5MB4XDTIwMDQxOTAxMzQyOVoXDTMwMDQxNzAxMzQyOVowaDEL
MAkGA1UEBhMCSlAxDjAMBgNVBAgMBVRva3lvMQ4wDAYDVQQHDAVDaHVvdTETMBEG
A1UECgwKTXlDb3JwLkxURDELMAkGA1UECwwCSVQxFzAVBgNVBAMMDk15Um9vdENh
MjAwNDE5MIIBIjANBgkqhkiG9w0BAQEFAAOCAQ8AMIIBCgKCAQEAt1GVPPhggC0F
0yjcSvwD1PUoP6nh4lCBWEPE6SSQXZPXRs0Ft+u/3TllIu6szw++sL9XN09+qvOS
m7avDzf7pw/ye+y4hLzW4B7hOdP0P+zOaSje3ZgohOY3+qEzQTr/BB0nlO2ENWbo
GBnAFa4aNfsTr1DoiuljBdwv3AK1gDBnMKUpVi2paY2PIBSBeQLtdzIIv9H3Ebyl
0A8WwCS9SdPRDY+UvDC6iQp8uGROILj3r+xAZs3NvnR7PrbaOsZmhvFF3AaV4K6I
vtuumVCS+UBH0YL+wfRU3hbPC+vDozE4VhxgvBo6Apc8E9Y77Lh8ODbgFYTeCz12
3Hvhk4pQuQIDAQABo1MwUTAdBgNVHQ4EFgQURJGQurcD69OzuTLorq035HARAdMw
HwYDVR0jBBgwFoAURJGQurcD69OzuTLorq035HARAdMwDwYDVR0TAQH/BAUwAwEB
/zANBgkqhkiG9w0BAQsFAAOCAQEAcNfHeBPEm3UgmanNTN0SSnupIdEJs9Cnub1q
l+7aTZ6npxZn88WdhZ0mCtg4VFJw7jsX5y4M6Tta9qxfj9guaRNev/qYO30CcC84
lwgWxGQsPZ2nuOE4XgUKtp1FKXbC1NE6mXCbXd5fidjWs821QlZ0e9RHvc33YhSD
EzBCxpzWNmDenvFgUfay9jjq/uEy/hdqHnDDdiINgLyigwaJzKorxRgQVTxcFShf
Te1sQHAGyGuKwbR7aigA1R6bBih2ggCeynvE1YBPY6eccDoI0pGUsTx1TE1eZLEB
4PyjBAX9GGk8jyVcxt/QmDFZHeKkQtq31g/fk/OTc3gW02uX2g==
-----END CERTIFICATE-----
Certificate:
    Data:
        Version: 3 (0x2)
        Serial Number:
            1e:36:20:86:e2:52:05:ce:ac:a5:6c:22:b5:b5:8c:73:cc:72:fe:e4
        Signature Algorithm: sha256WithRSAEncryption
        Issuer: C=JP, ST=Tokyo, L=Chuou, O=MyCorp.LTD, OU=IT, CN=MyRootCa200419
        Validity
            Not Before: Apr 19 01:34:35 2020 GMT
            Not After : Apr 17 01:34:35 2030 GMT
        Subject: C=JP, ST=Tokyo, O=MyCorp.LTD, OU=IT, CN=MyInterCa200419
        Subject Public Key Info:
            Public Key Algorithm: rsaEncryption
                RSA Public-Key: (2048 bit)
                Modulus:
                    00:b9:dd:7e:e2:cf:61:1f:e0:1a:b8:6f:1e:e1:07:
                    b7:10:66:c0:3e:78:f0:cb:86:50:e0:2b:3b:d2:dd:
                    d3:5f:4c:c6:15:7c:65:0c:18:57:60:ec:ef:ce:3a:
                    e2:99:14:69:91:c4:70:0e:f7:0a:4b:0d:89:43:e0:
                    c6:81:ba:e6:4b:9f:a8:11:b0:32:96:1a:8b:5a:45:
                    65:4b:e1:c1:f7:c0:7a:1b:b7:55:9e:3f:5c:21:7c:
                    ad:14:4f:44:ec:24:2f:38:00:a9:60:c4:87:fe:37:
                    ef:b7:0e:71:ee:f6:22:98:ab:32:1a:06:d9:5d:0f:
                    58:f1:15:aa:9e:79:69:1c:ac:4a:63:69:66:c2:fb:
                    f2:97:99:ec:bc:5e:64:2a:ca:58:0c:78:d9:8f:e7:
                    61:21:57:19:3b:d3:8b:04:30:c1:ab:50:4c:6c:c0:
                    e7:cb:8e:9e:82:b2:a8:ae:35:9b:89:da:5b:eb:f7:
                    ba:1a:cd:b2:f3:ca:29:0f:70:6b:5a:d7:94:cc:8c:
                    5a:3e:1a:52:58:a2:7d:39:a4:e3:e2:71:83:6c:39:
                    b7:2b:d1:a0:79:56:51:0c:2b:df:ac:71:4d:42:ac:
                    88:35:82:40:7a:fa:91:a1:a1:d1:71:af:ff:e3:cf:
                    73:b8:e3:6c:03:3f:83:a5:8d:27:43:28:2f:4b:69:
                    2b:53
                Exponent: 65537 (0x10001)
        X509v3 extensions:
            X509v3 Subject Key Identifier: 
                C5:5A:B7:A2:77:37:38:DD:36:92:4C:30:88:3F:4B:E7:45:A1:57:FF
            X509v3 Authority Key Identifier: 
                keyid:44:91:90:BA:B7:03:EB:D3:B3:B9:32:E8:AE:AD:37:E4:70:11:01:D3

            X509v3 Basic Constraints: critical
                CA:TRUE
    Signature Algorithm: sha256WithRSAEncryption
         90:bf:75:46:b2:cd:8d:8c:55:2d:01:9c:95:ec:17:ae:6c:26:
         6d:b7:e5:5c:00:02:6d:db:bf:62:85:32:26:1a:a1:17:d2:0e:
         cd:b6:14:af:cb:44:04:a1:27:98:9e:25:fd:4b:8c:bc:a7:22:
         db:48:d1:b0:cc:f9:26:56:d5:e5:54:b7:0a:3c:39:76:fb:7a:
         7d:21:2c:dc:df:b9:48:51:de:e9:61:79:3c:68:c2:02:d0:e6:
         34:d6:db:de:78:a9:8e:43:0b:97:24:a0:24:fb:54:b7:32:52:
         3e:fe:67:c5:4c:56:64:a3:d0:32:4b:f7:03:6e:3f:c5:46:34:
         da:f6:f1:68:fc:e9:0c:84:03:d0:73:60:32:45:22:1d:39:10:
         93:cc:88:2a:a0:e5:e4:a2:8e:3d:23:3d:28:a6:91:54:94:2c:
         fb:e7:d8:be:42:70:05:94:0c:a6:b0:ad:bc:4b:3b:50:68:5a:
         28:36:f8:a3:d7:ae:11:e3:36:85:39:ca:57:f6:67:eb:15:04:
         cd:28:c8:35:2b:75:4d:8d:c3:e5:95:00:8d:6a:8e:81:c0:69:
         36:bb:ca:a5:ab:99:dc:2c:df:74:c3:e3:46:e6:05:70:fb:19:
         7a:5d:02:0a:96:20:4b:29:4f:cb:ce:cc:e1:65:ad:52:5a:cd:
         69:4e:c9:69
-----BEGIN CERTIFICATE-----
MIIDojCCAoqgAwIBAgIUHjYghuJSBc6spWwitbWMc8xy/uQwDQYJKoZIhvcNAQEL
BQAwaDELMAkGA1UEBhMCSlAxDjAMBgNVBAgMBVRva3lvMQ4wDAYDVQQHDAVDaHVv
dTETMBEGA1UECgwKTXlDb3JwLkxURDELMAkGA1UECwwCSVQxFzAVBgNVBAMMDk15
Um9vdENhMjAwNDE5MB4XDTIwMDQxOTAxMzQzNVoXDTMwMDQxNzAxMzQzNVowWTEL
MAkGA1UEBhMCSlAxDjAMBgNVBAgMBVRva3lvMRMwEQYDVQQKDApNeUNvcnAuTFRE
MQswCQYDVQQLDAJJVDEYMBYGA1UEAwwPTXlJbnRlckNhMjAwNDE5MIIBIjANBgkq
hkiG9w0BAQEFAAOCAQ8AMIIBCgKCAQEAud1+4s9hH+AauG8e4Qe3EGbAPnjwy4ZQ
4Cs70t3TX0zGFXxlDBhXYOzvzjrimRRpkcRwDvcKSw2JQ+DGgbrmS5+oEbAylhqL
WkVlS+HB98B6G7dVnj9cIXytFE9E7CQvOACpYMSH/jfvtw5x7vYimKsyGgbZXQ9Y
8RWqnnlpHKxKY2lmwvvyl5nsvF5kKspYDHjZj+dhIVcZO9OLBDDBq1BMbMDny46e
grKorjWbidpb6/e6Gs2y88opD3BrWteUzIxaPhpSWKJ9OaTj4nGDbDm3K9GgeVZR
DCvfrHFNQqyINYJAevqRoaHRca//489zuONsAz+DpY0nQygvS2krUwIDAQABo1Mw
UTAdBgNVHQ4EFgQUxVq3onc3ON02kkwwiD9L50WhV/8wHwYDVR0jBBgwFoAURJGQ
urcD69OzuTLorq035HARAdMwDwYDVR0TAQH/BAUwAwEB/zANBgkqhkiG9w0BAQsF
AAOCAQEAkL91RrLNjYxVLQGclewXrmwmbbflXAACbdu/YoUyJhqhF9IOzbYUr8tE
BKEnmJ4l/UuMvKci20jRsMz5JlbV5VS3Cjw5dvt6fSEs3N+5SFHe6WF5PGjCAtDm
NNbb3nipjkMLlySgJPtUtzJSPv5nxUxWZKPQMkv3A24/xUY02vbxaPzpDIQD0HNg
MkUiHTkQk8yIKqDl5KKOPSM9KKaRVJQs++fYvkJwBZQMprCtvEs7UGhaKDb4o9eu
EeM2hTnKV/Zn6xUEzSjINSt1TY3D5ZUAjWqOgcBpNrvKpauZ3CzfdMPjRuYFcPsZ
el0CCpYgSylPy87M4WWtUlrNaU7JaQ==
-----END CERTIFICATE-----
Certificate:
    Data:
        Version: 3 (0x2)
        Serial Number:
            6c:a9:d5:72:d2:d6:3d:16:2e:60:8f:ee:71:fd:61:bd:a4:78:80:b5
        Signature Algorithm: sha256WithRSAEncryption
        Issuer: C=JP, ST=Tokyo, O=MyCorp.LTD, OU=IT, CN=MyInterCa200419
        Validity
            Not Before: Apr 20 00:36:32 2020 GMT
            Not After : Apr 20 00:36:32 2021 GMT
        Subject: C=JP, ST=Tokyo, O=MyCorp.LTD, OU=IT, CN=MyClient200420
        Subject Public Key Info:
            Public Key Algorithm: rsaEncryption
                RSA Public-Key: (2048 bit)
                Modulus:
                    00:d6:85:02:28:e5:11:c4:26:ce:50:49:f0:f6:60:
                    9c:4d:85:62:55:04:0b:69:69:dc:3d:78:9e:af:8e:
                    e4:52:13:ee:ac:1d:df:a1:06:c9:74:20:14:63:b9:
                    f4:d5:47:9f:23:69:90:44:e1:9e:6d:9f:07:4d:80:
                    4e:e2:07:5c:79:8e:b7:0a:e7:62:52:eb:82:2e:bb:
                    34:95:e1:f3:0c:63:96:35:a8:29:b0:d1:8a:b1:6c:
                    14:39:ed:15:13:3f:6d:1d:de:ce:4e:1c:7b:ee:9f:
                    f2:8b:29:0f:e6:d6:5d:fe:86:1b:fa:63:b3:84:1d:
                    38:ae:c1:bf:98:3b:3a:10:4e:62:06:38:45:0b:c7:
                    68:9b:42:74:f5:0d:b6:d6:13:91:2c:3a:1b:39:46:
                    75:e4:6e:66:33:24:9a:9e:48:7f:8e:9b:fc:7e:d5:
                    53:d5:e1:b2:2d:32:d4:76:f1:08:01:2d:a9:28:31:
                    31:3c:4c:a5:c8:69:80:ad:54:3e:4a:e0:f9:3f:b1:
                    7d:19:77:1a:3b:28:ac:5d:11:66:af:7c:db:4f:74:
                    7e:4f:70:57:f7:7e:23:71:9c:e1:9d:6c:31:5a:2c:
                    33:e2:49:ca:62:7f:6b:35:ff:d6:7c:bb:75:02:cf:
                    b8:0b:2f:30:65:56:99:17:60:84:8f:d9:c6:48:40:
                    fe:09
                Exponent: 65537 (0x10001)
        X509v3 extensions:
            X509v3 Basic Constraints: 
                CA:FALSE
            X509v3 Key Usage: 
                Digital Signature, Key Encipherment
            X509v3 Extended Key Usage: 
                TLS Web Client Authentication
            X509v3 Subject Key Identifier: 
                B5:C4:0C:53:5D:1B:09:07:83:FE:B7:95:D9:B6:6E:E6:4B:0B:49:51
            X509v3 Authority Key Identifier: 
                keyid:C5:5A:B7:A2:77:37:38:DD:36:92:4C:30:88:3F:4B:E7:45:A1:57:FF

    Signature Algorithm: sha256WithRSAEncryption
         35:35:ee:41:9a:c9:73:73:71:9b:41:84:4e:51:1b:fa:75:6a:
         68:33:fa:d0:68:b7:49:91:f6:a3:fa:e8:c1:72:34:0c:15:21:
         ab:23:a5:ab:e0:a5:1b:21:cf:d4:d7:43:16:5b:4c:c4:c4:ce:
         c4:9c:5c:ed:12:5e:a9:f3:67:24:8f:ef:81:ab:4b:11:19:26:
         cc:9e:1b:5f:53:78:45:ce:df:46:3c:b8:48:3e:50:eb:cb:4d:
         de:68:55:f3:a7:8f:e4:0a:7f:e9:c4:69:69:94:07:5a:5d:64:
         cf:63:a3:b5:23:23:cc:fe:28:57:52:1f:f7:a6:2b:ac:9d:51:
         70:4d:ca:b7:59:27:cb:5a:e5:77:e8:b3:fb:83:21:84:61:27:
         14:5f:66:e3:a6:58:a3:93:d3:66:2c:c0:a5:7e:8d:90:61:b1:
         d5:d6:8e:78:7e:bd:1b:ca:ac:1e:d3:0f:c4:7f:fe:ba:2b:59:
         de:23:fd:9d:53:af:48:a8:a3:05:e1:66:f8:ea:e3:ee:3e:65:
         92:43:19:9e:93:a7:71:1a:9b:6a:d5:8e:0c:67:0b:17:b3:61:
         2d:6d:ee:ba:57:57:68:c8:1f:92:ff:0c:a9:13:a0:17:ea:73:
         31:c3:63:57:7c:1a:9a:fb:c2:7a:45:eb:f6:30:6a:c9:94:c5:
         e3:4a:e3:87
-----BEGIN CERTIFICATE-----
MIIDrjCCApagAwIBAgIUbKnVctLWPRYuYI/ucf1hvaR4gLUwDQYJKoZIhvcNAQEL
BQAwWTELMAkGA1UEBhMCSlAxDjAMBgNVBAgMBVRva3lvMRMwEQYDVQQKDApNeUNv
cnAuTFREMQswCQYDVQQLDAJJVDEYMBYGA1UEAwwPTXlJbnRlckNhMjAwNDE5MB4X
DTIwMDQyMDAwMzYzMloXDTIxMDQyMDAwMzYzMlowWDELMAkGA1UEBhMCSlAxDjAM
BgNVBAgMBVRva3lvMRMwEQYDVQQKDApNeUNvcnAuTFREMQswCQYDVQQLDAJJVDEX
MBUGA1UEAwwOTXlDbGllbnQyMDA0MjAwggEiMA0GCSqGSIb3DQEBAQUAA4IBDwAw
ggEKAoIBAQDWhQIo5RHEJs5QSfD2YJxNhWJVBAtpadw9eJ6vjuRSE+6sHd+hBsl0
IBRjufTVR58jaZBE4Z5tnwdNgE7iB1x5jrcK52JS64IuuzSV4fMMY5Y1qCmw0Yqx
bBQ57RUTP20d3s5OHHvun/KLKQ/m1l3+hhv6Y7OEHTiuwb+YOzoQTmIGOEULx2ib
QnT1DbbWE5EsOhs5RnXkbmYzJJqeSH+Om/x+1VPV4bItMtR28QgBLakoMTE8TKXI
aYCtVD5K4Pk/sX0Zdxo7KKxdEWavfNtPdH5PcFf3fiNxnOGdbDFaLDPiScpif2s1
/9Z8u3UCz7gLLzBlVpkXYISP2cZIQP4JAgMBAAGjbzBtMAkGA1UdEwQCMAAwCwYD
VR0PBAQDAgWgMBMGA1UdJQQMMAoGCCsGAQUFBwMCMB0GA1UdDgQWBBS1xAxTXRsJ
B4P+t5XZtm7mSwtJUTAfBgNVHSMEGDAWgBTFWreidzc43TaSTDCIP0vnRaFX/zAN
BgkqhkiG9w0BAQsFAAOCAQEANTXuQZrJc3Nxm0GETlEb+nVqaDP60Gi3SZH2o/ro
wXI0DBUhqyOlq+ClGyHP1NdDFltMxMTOxJxc7RJeqfNnJI/vgatLERkmzJ4bX1N4
Rc7fRjy4SD5Q68tN3mhV86eP5Ap/6cRpaZQHWl1kz2OjtSMjzP4oV1If96YrrJ1R
cE3Kt1kny1rld+iz+4MhhGEnFF9m46ZYo5PTZizApX6NkGGx1daOeH69G8qsHtMP
xH/+uitZ3iP9nVOvSKijBeFm+Orj7j5lkkMZnpOncRqbatWODGcLF7NhLW3uuldX
aMgfkv8MqROgF+pzMcNjV3wamvvCekXr9jBqyZTF40rjhw==
-----END CERTIFICATE-----
