Certificate:
    Data:
        Version: 3 (0x2)
        Serial Number:
            79:7a:0b:49:3c:e6:27:c2:f4:2e:1e:da:11:23:e8:44:b8:2a:ef:19
        Signature Algorithm: sha256WithRSAEncryption
        Issuer: C=JP, ST=Tokyo, O=ITC.CORP, OU=IT, CN=ConcertoInterCa200508
        Validity
            Not Before: May  8 00:03:50 2020 GMT
            Not After : May  3 00:03:50 2040 GMT
        Subject: C=JP, ST=Tokyo, O=ITC.CORP, OU=IT, CN=itcp1913571.toshiba.local
        Subject Public Key Info:
            Public Key Algorithm: rsaEncryption
                RSA Public-Key: (2048 bit)
                Modulus:
                    00:e9:c9:ff:3d:1b:8d:de:09:5a:55:da:a9:67:80:
                    54:19:bc:e3:b4:07:40:65:a4:ef:f8:48:8c:33:12:
                    8a:26:8a:f5:e1:a7:cf:aa:4d:c9:a2:ec:c4:d6:9b:
                    ee:cf:5c:f7:5a:32:b4:a4:d0:be:2e:16:7e:d6:8f:
                    14:60:fb:1f:c0:24:67:4e:1b:bf:78:4c:cd:bf:d6:
                    e3:0b:fc:84:45:28:5b:82:ea:b2:4b:8b:36:00:d2:
                    64:af:11:3c:39:27:e6:64:12:96:93:e9:e9:a0:1f:
                    d2:82:39:04:31:0f:8e:5d:02:23:32:32:09:5c:bc:
                    57:9d:55:25:22:61:b7:d4:ed:73:57:e3:a7:37:8a:
                    c1:78:7c:e9:7a:fe:b7:2a:94:94:bd:8e:26:dc:b7:
                    e8:60:eb:5d:ea:31:b4:b8:ea:50:b2:fa:24:4a:93:
                    22:eb:8e:c8:5c:97:7c:87:e6:f6:16:ed:5f:fc:09:
                    ce:23:31:0e:6a:b2:59:14:1e:93:e5:e4:c1:54:a5:
                    64:63:b4:10:fa:7d:21:a4:3a:19:4e:bf:d0:ab:a7:
                    27:d8:a1:47:1d:2c:a9:c4:e1:a8:e6:88:88:61:92:
                    ed:b3:6e:53:71:0d:2f:a3:36:da:da:ba:88:13:37:
                    e5:a5:e7:e8:5c:4d:1f:18:56:09:aa:92:ad:25:37:
                    fe:c3
                Exponent: 65537 (0x10001)
        X509v3 extensions:
            X509v3 Basic Constraints: 
                CA:FALSE
            X509v3 Key Usage: 
                Digital Signature, Key Encipherment
            X509v3 Extended Key Usage: 
                TLS Web Server Authentication
            X509v3 Subject Key Identifier: 
                65:14:F9:C7:6F:25:9F:23:BC:03:31:47:DC:24:92:8B:0E:2E:3A:D8
            X509v3 Authority Key Identifier: 
                keyid:12:CD:9A:85:E8:FB:D9:CB:A4:4E:00:FD:8F:34:72:C6:98:C9:3E:D7

    Signature Algorithm: sha256WithRSAEncryption
         76:9c:b9:1b:f9:3f:ea:13:ef:8d:a6:ae:5a:4a:8d:65:44:13:
         18:66:3a:7d:b1:b5:88:57:44:f7:8e:25:38:ba:b1:cb:97:c3:
         85:c4:94:c7:78:bd:c0:38:c6:aa:45:0d:cd:51:6e:b5:fd:e3:
         5d:0f:7d:fd:53:37:68:88:20:e9:0d:54:e7:28:7a:32:a5:49:
         dc:fb:c8:cc:f3:8f:72:cd:80:6d:1e:99:fe:01:44:8e:58:d4:
         c8:99:99:05:55:67:f1:a6:ef:62:a1:39:cc:aa:de:cb:bf:f1:
         8e:30:02:b5:63:74:b6:21:6f:e0:3e:23:d4:e4:65:fd:4f:40:
         f5:6f:2c:31:41:16:aa:72:0b:e3:40:02:16:1c:a1:69:46:de:
         cd:f5:27:06:6f:68:94:4d:67:9b:05:f8:9b:5a:0d:80:4f:3d:
         61:ba:c2:c7:48:9d:41:54:64:0f:03:db:71:68:48:da:6a:88:
         bc:a1:3f:d3:a7:5f:1b:35:90:e5:cc:4b:dc:97:48:14:2c:7b:
         5f:38:33:91:8c:7d:df:68:c4:d8:68:31:4c:96:ed:6d:0d:54:
         12:5c:ec:68:cd:16:37:64:08:32:c0:97:42:b3:f4:04:34:14:
         59:06:ad:11:ac:b0:f2:73:ec:f0:9d:7b:75:7c:40:91:5a:35:
         98:e8:56:e0
-----BEGIN CERTIFICATE-----
MIIDuzCCAqOgAwIBAgIUeXoLSTzmJ8L0Lh7aESPoRLgq7xkwDQYJKoZIhvcNAQEL
BQAwXTELMAkGA1UEBhMCSlAxDjAMBgNVBAgMBVRva3lvMREwDwYDVQQKDAhJVEMu
Q09SUDELMAkGA1UECwwCSVQxHjAcBgNVBAMMFUNvbmNlcnRvSW50ZXJDYTIwMDUw
ODAeFw0yMDA1MDgwMDAzNTBaFw00MDA1MDMwMDAzNTBaMGExCzAJBgNVBAYTAkpQ
MQ4wDAYDVQQIDAVUb2t5bzERMA8GA1UECgwISVRDLkNPUlAxCzAJBgNVBAsMAklU
MSIwIAYDVQQDDBlpdGNwMTkxMzU3MS50b3NoaWJhLmxvY2FsMIIBIjANBgkqhkiG
9w0BAQEFAAOCAQ8AMIIBCgKCAQEA6cn/PRuN3glaVdqpZ4BUGbzjtAdAZaTv+EiM
MxKKJor14afPqk3JouzE1pvuz1z3WjK0pNC+LhZ+1o8UYPsfwCRnThu/eEzNv9bj
C/yERShbguqyS4s2ANJkrxE8OSfmZBKWk+npoB/SgjkEMQ+OXQIjMjIJXLxXnVUl
ImG31O1zV+OnN4rBeHzpev63KpSUvY4m3LfoYOtd6jG0uOpQsvokSpMi647IXJd8
h+b2Fu1f/AnOIzEOarJZFB6T5eTBVKVkY7QQ+n0hpDoZTr/Qq6cn2KFHHSypxOGo
5oiIYZLts25TcQ0vozba2rqIEzflpefoXE0fGFYJqpKtJTf+wwIDAQABo28wbTAJ
BgNVHRMEAjAAMAsGA1UdDwQEAwIFoDATBgNVHSUEDDAKBggrBgEFBQcDATAdBgNV
HQ4EFgQUZRT5x28lnyO8AzFH3CSSiw4uOtgwHwYDVR0jBBgwFoAUEs2ahej72cuk
TgD9jzRyxpjJPtcwDQYJKoZIhvcNAQELBQADggEBAHacuRv5P+oT742mrlpKjWVE
ExhmOn2xtYhXRPeOJTi6scuXw4XElMd4vcA4xqpFDc1RbrX9410Pff1TN2iIIOkN
VOcoejKlSdz7yMzzj3LNgG0emf4BRI5Y1MiZmQVVZ/Gm72KhOcyq3su/8Y4wArVj
dLYhb+A+I9TkZf1PQPVvLDFBFqpyC+NAAhYcoWlG3s31JwZvaJRNZ5sF+JtaDYBP
PWG6wsdInUFUZA8D23FoSNpqiLyhP9OnXxs1kOXMS9yXSBQse184M5GMfd9oxNho
MUyW7W0NVBJc7GjNFjdkCDLAl0Kz9AQ0FFkGrRGssPJz7PCde3V8QJFaNZjoVuA=
-----END CERTIFICATE-----
