Certificate:
    Data:
        Version: 3 (0x2)
        Serial Number:
            4d:5f:6e:2f:05:96:37:94:f2:f4:5a:15:95:7b:42:d7:44:dd:f8:79
        Signature Algorithm: sha256WithRSAEncryption
        Issuer: C=JP, ST=Tokyo, O=ITC.CORP, OU=IT, CN=ConcertoInterCa200508
        Validity
            Not Before: May  7 22:16:59 2020 GMT
            Not After : May  2 22:16:59 2040 GMT
        Subject: C=JP, ST=Tokyo, O=ITC.CORP, OU=IT, CN=itcp1913571.toshiba.local
        Subject Public Key Info:
            Public Key Algorithm: rsaEncryption
                RSA Public-Key: (2048 bit)
                Modulus:
                    00:dd:d8:f9:b9:88:19:c9:1d:93:67:af:66:7b:ae:
                    a7:f4:b1:ba:21:4b:35:6d:87:5c:98:9b:94:93:cd:
                    4d:85:12:68:67:47:ee:f5:c9:7a:cc:a5:d5:d0:9d:
                    c1:27:71:aa:0f:16:e0:45:e5:03:ad:9a:44:0c:94:
                    30:dd:bc:8a:1e:db:4d:e0:28:b3:f3:92:b9:1c:45:
                    00:aa:82:05:4c:1d:75:82:bc:70:77:a4:5c:04:15:
                    da:47:dc:39:ba:c6:64:e2:d3:22:91:bb:7c:d8:2a:
                    b2:2b:d8:54:76:42:96:ce:1e:ea:e9:3e:4c:96:e8:
                    ea:cd:85:6b:61:ee:db:2e:9a:6b:41:d7:be:5d:87:
                    a4:7e:bb:ba:1c:5d:f4:f6:90:65:d6:61:da:8f:2f:
                    e5:58:b9:e9:74:6a:a2:ed:ec:94:47:e0:78:95:13:
                    2d:91:79:4e:56:15:b4:3a:42:6f:d2:30:18:02:bb:
                    37:9b:74:04:ec:63:37:c2:2a:bc:61:c0:8f:7d:fb:
                    01:13:73:90:e1:7c:62:5a:7b:b3:82:15:57:b3:2e:
                    70:3d:00:93:79:75:ca:76:db:2a:0e:9d:66:22:6b:
                    a3:1f:57:5f:19:b7:54:1c:fa:01:19:9e:d7:90:96:
                    8d:a3:60:a7:59:44:44:6c:c8:a0:7c:8d:97:fb:a7:
                    7d:09
                Exponent: 65537 (0x10001)
        X509v3 extensions:
            X509v3 Basic Constraints: 
                CA:FALSE
            X509v3 Key Usage: 
                Digital Signature, Key Encipherment
            X509v3 Extended Key Usage: 
                TLS Web Server Authentication
            X509v3 Subject Key Identifier: 
                8A:9A:64:11:79:B0:0F:1D:B5:CA:E3:7A:40:57:68:CC:FD:CB:50:83
            X509v3 Authority Key Identifier: 
                keyid:12:CD:9A:85:E8:FB:D9:CB:A4:4E:00:FD:8F:34:72:C6:98:C9:3E:D7

    Signature Algorithm: sha256WithRSAEncryption
         28:03:af:85:cb:22:50:90:52:fc:42:5b:4b:dd:1d:64:59:2f:
         f5:5e:23:65:79:4e:bb:5c:94:2c:00:63:57:b3:91:73:7b:3a:
         7a:df:34:7c:29:86:48:59:bd:f8:fc:e1:17:9a:c6:91:15:c9:
         8a:d2:32:e6:17:24:cb:d6:e0:1b:03:0d:da:09:8b:00:68:1e:
         c9:20:96:dd:e7:0d:8d:7f:81:5d:af:48:3e:9b:31:f5:1d:31:
         19:e4:2d:14:8f:6c:f0:78:35:ec:c3:ed:3c:f2:e4:fb:c4:90:
         1f:6e:65:42:d8:e5:28:82:e4:02:45:f2:cd:02:a6:b1:40:ee:
         bb:c1:7c:d1:19:26:d0:ae:ef:7e:6a:71:2a:05:f0:d3:83:d1:
         41:e8:bc:17:61:61:2d:a2:3a:08:0a:8a:ae:c1:12:46:16:4a:
         0d:12:b7:06:bb:2f:96:b1:eb:3f:f8:95:99:22:ce:fc:07:03:
         60:f9:cf:6b:c0:d2:cd:ba:59:47:81:67:02:c5:bc:37:c8:66:
         85:f4:2b:0d:c6:09:88:e2:44:e8:ec:3e:a5:27:74:ed:c9:bc:
         86:7c:34:00:1e:ff:46:9c:5c:d3:4a:c3:e7:12:b6:02:eb:c3:
         95:bb:bd:d3:40:d6:60:e9:e7:4c:40:80:89:58:19:10:a6:32:
         a6:b8:2e:e4
-----BEGIN CERTIFICATE-----
MIIDuzCCAqOgAwIBAgIUTV9uLwWWN5Ty9FoVlXtC10Td+HkwDQYJKoZIhvcNAQEL
BQAwXTELMAkGA1UEBhMCSlAxDjAMBgNVBAgMBVRva3lvMREwDwYDVQQKDAhJVEMu
Q09SUDELMAkGA1UECwwCSVQxHjAcBgNVBAMMFUNvbmNlcnRvSW50ZXJDYTIwMDUw
ODAeFw0yMDA1MDcyMjE2NTlaFw00MDA1MDIyMjE2NTlaMGExCzAJBgNVBAYTAkpQ
MQ4wDAYDVQQIDAVUb2t5bzERMA8GA1UECgwISVRDLkNPUlAxCzAJBgNVBAsMAklU
MSIwIAYDVQQDDBlpdGNwMTkxMzU3MS50b3NoaWJhLmxvY2FsMIIBIjANBgkqhkiG
9w0BAQEFAAOCAQ8AMIIBCgKCAQEA3dj5uYgZyR2TZ69me66n9LG6IUs1bYdcmJuU
k81NhRJoZ0fu9cl6zKXV0J3BJ3GqDxbgReUDrZpEDJQw3byKHttN4Ciz85K5HEUA
qoIFTB11grxwd6RcBBXaR9w5usZk4tMikbt82CqyK9hUdkKWzh7q6T5MlujqzYVr
Ye7bLpprQde+XYekfru6HF309pBl1mHajy/lWLnpdGqi7eyUR+B4lRMtkXlOVhW0
OkJv0jAYArs3m3QE7GM3wiq8YcCPffsBE3OQ4XxiWnuzghVXsy5wPQCTeXXKdtsq
Dp1mImujH1dfGbdUHPoBGZ7XkJaNo2CnWUREbMigfI2X+6d9CQIDAQABo28wbTAJ
BgNVHRMEAjAAMAsGA1UdDwQEAwIFoDATBgNVHSUEDDAKBggrBgEFBQcDATAdBgNV
HQ4EFgQUippkEXmwDx21yuN6QFdozP3LUIMwHwYDVR0jBBgwFoAUEs2ahej72cuk
TgD9jzRyxpjJPtcwDQYJKoZIhvcNAQELBQADggEBACgDr4XLIlCQUvxCW0vdHWRZ
L/VeI2V5TrtclCwAY1ezkXN7OnrfNHwphkhZvfj84ReaxpEVyYrSMuYXJMvW4BsD
DdoJiwBoHskglt3nDY1/gV2vSD6bMfUdMRnkLRSPbPB4NezD7Tzy5PvEkB9uZULY
5SiC5AJF8s0CprFA7rvBfNEZJtCu735qcSoF8NOD0UHovBdhYS2iOggKiq7BEkYW
Sg0Stwa7L5ax6z/4lZkizvwHA2D5z2vA0s26WUeBZwLFvDfIZoX0Kw3GCYjiROjs
PqUndO3JvIZ8NAAe/0acXNNKw+cStgLrw5W7vdNA1mDp50xAgIlYGRCmMqa4LuQ=
-----END CERTIFICATE-----
